
can_comm.elf:     file format elf32-littlearm

Sections:
Idx Name          Size      VMA       LMA       File off  Algn
  0 .isr_vector   0000010c  08000000  08000000  00010000  2**0
                  CONTENTS, ALLOC, LOAD, READONLY, DATA
  1 .text         00003d00  0800010c  0800010c  0001010c  2**2
                  CONTENTS, ALLOC, LOAD, READONLY, CODE
  2 .rodata       00001fe8  08003e0c  08003e0c  00013e0c  2**2
                  CONTENTS, ALLOC, LOAD, READONLY, DATA
  3 .ARM.extab    00000000  08005df4  08005df4  00020078  2**0
                  CONTENTS
  4 .ARM          00000000  08005df4  08005df4  00020078  2**0
                  CONTENTS
  5 .preinit_array 00000000  08005df4  08005df4  00020078  2**0
                  CONTENTS, ALLOC, LOAD, DATA
  6 .init_array   00000004  08005df4  08005df4  00015df4  2**2
                  CONTENTS, ALLOC, LOAD, DATA
  7 .fini_array   00000004  08005df8  08005df8  00015df8  2**2
                  CONTENTS, ALLOC, LOAD, DATA
  8 .data         00000078  20000000  08005dfc  00020000  2**2
                  CONTENTS, ALLOC, LOAD, DATA
  9 .bss          00000534  20000078  08005e74  00020078  2**2
                  ALLOC
 10 ._user_heap_stack 00000604  200005ac  08005e74  000205ac  2**0
                  ALLOC
 11 .ARM.attributes 00000029  00000000  00000000  00020078  2**0
                  CONTENTS, READONLY
 12 .debug_info   000097c5  00000000  00000000  000200a1  2**0
                  CONTENTS, READONLY, DEBUGGING
 13 .debug_abbrev 00001b42  00000000  00000000  00029866  2**0
                  CONTENTS, READONLY, DEBUGGING
 14 .debug_aranges 00000960  00000000  00000000  0002b3a8  2**3
                  CONTENTS, READONLY, DEBUGGING
 15 .debug_macro  0000376b  00000000  00000000  0002bd08  2**0
                  CONTENTS, READONLY, DEBUGGING
 16 .debug_line   0000b946  00000000  00000000  0002f473  2**0
                  CONTENTS, READONLY, DEBUGGING
 17 .debug_str    0008709e  00000000  00000000  0003adb9  2**0
                  CONTENTS, READONLY, DEBUGGING
 18 .comment      000000be  00000000  00000000  000c1e57  2**0
                  CONTENTS, READONLY
 19 .debug_rnglists 000006dc  00000000  00000000  000c1f15  2**0
                  CONTENTS, READONLY, DEBUGGING
 20 .debug_frame  000028e0  00000000  00000000  000c25f4  2**2
                  CONTENTS, READONLY, DEBUGGING
 21 .debug_ranges 00000040  00000000  00000000  000c4ed4  2**0
                  CONTENTS, READONLY, DEBUGGING
 22 .debug_line_str 00000055  00000000  00000000  000c4f14  2**0
                  CONTENTS, READONLY, DEBUGGING

Disassembly of section .text:

0800010c <__do_global_dtors_aux>:
 800010c:	b510      	push	{r4, lr}
 800010e:	4c05      	ldr	r4, [pc, #20]	; (8000124 <__do_global_dtors_aux+0x18>)
 8000110:	7823      	ldrb	r3, [r4, #0]
 8000112:	b933      	cbnz	r3, 8000122 <__do_global_dtors_aux+0x16>
 8000114:	4b04      	ldr	r3, [pc, #16]	; (8000128 <__do_global_dtors_aux+0x1c>)
 8000116:	b113      	cbz	r3, 800011e <__do_global_dtors_aux+0x12>
 8000118:	4804      	ldr	r0, [pc, #16]	; (800012c <__do_global_dtors_aux+0x20>)
 800011a:	f3af 8000 	nop.w
 800011e:	2301      	movs	r3, #1
 8000120:	7023      	strb	r3, [r4, #0]
 8000122:	bd10      	pop	{r4, pc}
 8000124:	20000078 	.word	0x20000078
 8000128:	00000000 	.word	0x00000000
 800012c:	08003df4 	.word	0x08003df4

08000130 <frame_dummy>:
 8000130:	b508      	push	{r3, lr}
 8000132:	4b03      	ldr	r3, [pc, #12]	; (8000140 <frame_dummy+0x10>)
 8000134:	b11b      	cbz	r3, 800013e <frame_dummy+0xe>
 8000136:	4903      	ldr	r1, [pc, #12]	; (8000144 <frame_dummy+0x14>)
 8000138:	4803      	ldr	r0, [pc, #12]	; (8000148 <frame_dummy+0x18>)
 800013a:	f3af 8000 	nop.w
 800013e:	bd08      	pop	{r3, pc}
 8000140:	00000000 	.word	0x00000000
 8000144:	2000007c 	.word	0x2000007c
 8000148:	08003df4 	.word	0x08003df4

0800014c <HAL_CAN_RxFifo0MsgPendingCallback>:
 800014c:	b580      	push	{r7, lr}
 800014e:	b082      	sub	sp, #8
 8000150:	af00      	add	r7, sp, #0
 8000152:	6078      	str	r0, [r7, #4]
 8000154:	2104      	movs	r1, #4
 8000156:	480e      	ldr	r0, [pc, #56]	; (8000190 <HAL_CAN_RxFifo0MsgPendingCallback+0x44>)
 8000158:	f002 f828 	bl	80021ac <HAL_GPIO_TogglePin>
 800015c:	4b0d      	ldr	r3, [pc, #52]	; (8000194 <HAL_CAN_RxFifo0MsgPendingCallback+0x48>)
 800015e:	4a0e      	ldr	r2, [pc, #56]	; (8000198 <HAL_CAN_RxFifo0MsgPendingCallback+0x4c>)
 8000160:	2100      	movs	r1, #0
 8000162:	6878      	ldr	r0, [r7, #4]
 8000164:	f001 fa0f 	bl	8001586 <HAL_CAN_GetRxMessage>
 8000168:	4b0a      	ldr	r3, [pc, #40]	; (8000194 <HAL_CAN_RxFifo0MsgPendingCallback+0x48>)
 800016a:	881b      	ldrh	r3, [r3, #0]
 800016c:	b29a      	uxth	r2, r3
 800016e:	4b0b      	ldr	r3, [pc, #44]	; (800019c <HAL_CAN_RxFifo0MsgPendingCallback+0x50>)
 8000170:	801a      	strh	r2, [r3, #0]
 8000172:	4b09      	ldr	r3, [pc, #36]	; (8000198 <HAL_CAN_RxFifo0MsgPendingCallback+0x4c>)
 8000174:	691b      	ldr	r3, [r3, #16]
 8000176:	2b02      	cmp	r3, #2
 8000178:	d103      	bne.n	8000182 <HAL_CAN_RxFifo0MsgPendingCallback+0x36>
 800017a:	4b09      	ldr	r3, [pc, #36]	; (80001a0 <HAL_CAN_RxFifo0MsgPendingCallback+0x54>)
 800017c:	2201      	movs	r2, #1
 800017e:	601a      	str	r2, [r3, #0]
 8000180:	e002      	b.n	8000188 <HAL_CAN_RxFifo0MsgPendingCallback+0x3c>
 8000182:	4b07      	ldr	r3, [pc, #28]	; (80001a0 <HAL_CAN_RxFifo0MsgPendingCallback+0x54>)
 8000184:	2200      	movs	r2, #0
 8000186:	601a      	str	r2, [r3, #0]
 8000188:	bf00      	nop
 800018a:	3708      	adds	r7, #8
 800018c:	46bd      	mov	sp, r7
 800018e:	bd80      	pop	{r7, pc}
 8000190:	40010800 	.word	0x40010800
 8000194:	20000568 	.word	0x20000568
 8000198:	20000588 	.word	0x20000588
 800019c:	2000052c 	.word	0x2000052c
 80001a0:	20000094 	.word	0x20000094

080001a4 <main>:
 80001a4:	b580      	push	{r7, lr}
 80001a6:	b086      	sub	sp, #24
 80001a8:	af00      	add	r7, sp, #0
 80001aa:	f000 fe5b 	bl	8000e64 <HAL_Init>
 80001ae:	f000 fa05 	bl	80005bc <SSD1306_Init>
 80001b2:	f000 fc26 	bl	8000a02 <SSD1306_Clear>
 80001b6:	2100      	movs	r1, #0
 80001b8:	2000      	movs	r0, #0
 80001ba:	f000 fb67 	bl	800088c <SSD1306_GotoXY>
 80001be:	485d      	ldr	r0, [pc, #372]	; (8000334 <main+0x190>)
 80001c0:	f000 fc28 	bl	8000a14 <SSD1306_Println>
 80001c4:	f000 fabe 	bl	8000744 <SSD1306_UpdateScreen>
 80001c8:	f000 f8cc 	bl	8000364 <SystemClock_Config>
 80001cc:	f000 f986 	bl	80004dc <MX_GPIO_Init>
 80001d0:	f000 f902 	bl	80003d8 <MX_CAN_Init>
 80001d4:	f000 f954 	bl	8000480 <MX_I2C1_Init>
 80001d8:	4b57      	ldr	r3, [pc, #348]	; (8000338 <main+0x194>)
 80001da:	2208      	movs	r2, #8
 80001dc:	611a      	str	r2, [r3, #16]
 80001de:	4b56      	ldr	r3, [pc, #344]	; (8000338 <main+0x194>)
 80001e0:	2200      	movs	r2, #0
 80001e2:	609a      	str	r2, [r3, #8]
 80001e4:	4b54      	ldr	r3, [pc, #336]	; (8000338 <main+0x194>)
 80001e6:	2200      	movs	r2, #0
 80001e8:	60da      	str	r2, [r3, #12]
 80001ea:	4b53      	ldr	r3, [pc, #332]	; (8000338 <main+0x194>)
 80001ec:	f240 1203 	movw	r2, #259	; 0x103
 80001f0:	601a      	str	r2, [r3, #0]
 80001f2:	4b52      	ldr	r3, [pc, #328]	; (800033c <main+0x198>)
 80001f4:	2200      	movs	r2, #0
 80001f6:	611a      	str	r2, [r3, #16]
 80001f8:	4b50      	ldr	r3, [pc, #320]	; (800033c <main+0x198>)
 80001fa:	2200      	movs	r2, #0
 80001fc:	609a      	str	r2, [r3, #8]
 80001fe:	4b4f      	ldr	r3, [pc, #316]	; (800033c <main+0x198>)
 8000200:	2200      	movs	r2, #0
 8000202:	60da      	str	r2, [r3, #12]
 8000204:	4b4d      	ldr	r3, [pc, #308]	; (800033c <main+0x198>)
 8000206:	2201      	movs	r2, #1
 8000208:	61da      	str	r2, [r3, #28]
 800020a:	4b4c      	ldr	r3, [pc, #304]	; (800033c <main+0x198>)
 800020c:	2201      	movs	r2, #1
 800020e:	621a      	str	r2, [r3, #32]
 8000210:	4b4a      	ldr	r3, [pc, #296]	; (800033c <main+0x198>)
 8000212:	2200      	movs	r2, #0
 8000214:	615a      	str	r2, [r3, #20]
 8000216:	4b49      	ldr	r3, [pc, #292]	; (800033c <main+0x198>)
 8000218:	2200      	movs	r2, #0
 800021a:	619a      	str	r2, [r3, #24]
 800021c:	4947      	ldr	r1, [pc, #284]	; (800033c <main+0x198>)
 800021e:	4848      	ldr	r0, [pc, #288]	; (8000340 <main+0x19c>)
 8000220:	f000 ffa1 	bl	8001166 <HAL_CAN_ConfigFilter>
 8000224:	4846      	ldr	r0, [pc, #280]	; (8000340 <main+0x19c>)
 8000226:	f001 f867 	bl	80012f8 <HAL_CAN_Start>
 800022a:	2102      	movs	r1, #2
 800022c:	4844      	ldr	r0, [pc, #272]	; (8000340 <main+0x19c>)
 800022e:	f001 facb 	bl	80017c8 <HAL_CAN_ActivateNotification>
 8000232:	2104      	movs	r1, #4
 8000234:	4843      	ldr	r0, [pc, #268]	; (8000344 <main+0x1a0>)
 8000236:	f001 ffb9 	bl	80021ac <HAL_GPIO_TogglePin>
 800023a:	f44f 5100 	mov.w	r1, #8192	; 0x2000
 800023e:	4842      	ldr	r0, [pc, #264]	; (8000348 <main+0x1a4>)
 8000240:	f001 ffb4 	bl	80021ac <HAL_GPIO_TogglePin>
 8000244:	2300      	movs	r3, #0
 8000246:	617b      	str	r3, [r7, #20]
 8000248:	2300      	movs	r3, #0
 800024a:	607b      	str	r3, [r7, #4]
 800024c:	2300      	movs	r3, #0
 800024e:	74fb      	strb	r3, [r7, #19]
 8000250:	2300      	movs	r3, #0
 8000252:	60fb      	str	r3, [r7, #12]
 8000254:	483a      	ldr	r0, [pc, #232]	; (8000340 <main+0x19c>)
 8000256:	f001 f962 	bl	800151e <HAL_CAN_GetTxMailboxesFreeLevel>
 800025a:	4603      	mov	r3, r0
 800025c:	b2da      	uxtb	r2, r3
 800025e:	4b3b      	ldr	r3, [pc, #236]	; (800034c <main+0x1a8>)
 8000260:	701a      	strb	r2, [r3, #0]
 8000262:	4b3b      	ldr	r3, [pc, #236]	; (8000350 <main+0x1ac>)
 8000264:	681b      	ldr	r3, [r3, #0]
 8000266:	2b01      	cmp	r3, #1
 8000268:	d11a      	bne.n	80002a0 <main+0xfc>
 800026a:	2300      	movs	r3, #0
 800026c:	60bb      	str	r3, [r7, #8]
 800026e:	e00c      	b.n	800028a <main+0xe6>
 8000270:	f44f 5100 	mov.w	r1, #8192	; 0x2000
 8000274:	4834      	ldr	r0, [pc, #208]	; (8000348 <main+0x1a4>)
 8000276:	f001 ff99 	bl	80021ac <HAL_GPIO_TogglePin>
 800027a:	4b36      	ldr	r3, [pc, #216]	; (8000354 <main+0x1b0>)
 800027c:	781b      	ldrb	r3, [r3, #0]
 800027e:	4618      	mov	r0, r3
 8000280:	f000 fe52 	bl	8000f28 <HAL_Delay>
 8000284:	68bb      	ldr	r3, [r7, #8]
 8000286:	3301      	adds	r3, #1
 8000288:	60bb      	str	r3, [r7, #8]
 800028a:	4b32      	ldr	r3, [pc, #200]	; (8000354 <main+0x1b0>)
 800028c:	785b      	ldrb	r3, [r3, #1]
 800028e:	461a      	mov	r2, r3
 8000290:	68bb      	ldr	r3, [r7, #8]
 8000292:	4293      	cmp	r3, r2
 8000294:	dbec      	blt.n	8000270 <main+0xcc>
 8000296:	4b2e      	ldr	r3, [pc, #184]	; (8000350 <main+0x1ac>)
 8000298:	2200      	movs	r2, #0
 800029a:	601a      	str	r2, [r3, #0]
 800029c:	2301      	movs	r3, #1
 800029e:	74fb      	strb	r3, [r7, #19]
 80002a0:	7cfb      	ldrb	r3, [r7, #19]
 80002a2:	2b01      	cmp	r3, #1
 80002a4:	d1d6      	bne.n	8000254 <main+0xb0>
 80002a6:	2300      	movs	r3, #0
 80002a8:	617b      	str	r3, [r7, #20]
 80002aa:	e03b      	b.n	8000324 <main+0x180>
 80002ac:	4824      	ldr	r0, [pc, #144]	; (8000340 <main+0x19c>)
 80002ae:	f001 f936 	bl	800151e <HAL_CAN_GetTxMailboxesFreeLevel>
 80002b2:	4603      	mov	r3, r0
 80002b4:	b2da      	uxtb	r2, r3
 80002b6:	4b25      	ldr	r3, [pc, #148]	; (800034c <main+0x1a8>)
 80002b8:	701a      	strb	r2, [r3, #0]
 80002ba:	e006      	b.n	80002ca <main+0x126>
 80002bc:	4820      	ldr	r0, [pc, #128]	; (8000340 <main+0x19c>)
 80002be:	f001 f92e 	bl	800151e <HAL_CAN_GetTxMailboxesFreeLevel>
 80002c2:	4603      	mov	r3, r0
 80002c4:	b2da      	uxtb	r2, r3
 80002c6:	4b21      	ldr	r3, [pc, #132]	; (800034c <main+0x1a8>)
 80002c8:	701a      	strb	r2, [r3, #0]
 80002ca:	4b20      	ldr	r3, [pc, #128]	; (800034c <main+0x1a8>)
 80002cc:	781b      	ldrb	r3, [r3, #0]
 80002ce:	2b00      	cmp	r3, #0
 80002d0:	d0f4      	beq.n	80002bc <main+0x118>
 80002d2:	2102      	movs	r1, #2
 80002d4:	481b      	ldr	r0, [pc, #108]	; (8000344 <main+0x1a0>)
 80002d6:	f001 ff69 	bl	80021ac <HAL_GPIO_TogglePin>
 80002da:	2300      	movs	r3, #0
 80002dc:	60fb      	str	r3, [r7, #12]
 80002de:	e010      	b.n	8000302 <main+0x15e>
 80002e0:	697b      	ldr	r3, [r7, #20]
 80002e2:	00db      	lsls	r3, r3, #3
 80002e4:	68fa      	ldr	r2, [r7, #12]
 80002e6:	4413      	add	r3, r2
 80002e8:	607b      	str	r3, [r7, #4]
 80002ea:	4a1b      	ldr	r2, [pc, #108]	; (8000358 <main+0x1b4>)
 80002ec:	687b      	ldr	r3, [r7, #4]
 80002ee:	4413      	add	r3, r2
 80002f0:	7819      	ldrb	r1, [r3, #0]
 80002f2:	4a1a      	ldr	r2, [pc, #104]	; (800035c <main+0x1b8>)
 80002f4:	68fb      	ldr	r3, [r7, #12]
 80002f6:	4413      	add	r3, r2
 80002f8:	460a      	mov	r2, r1
 80002fa:	701a      	strb	r2, [r3, #0]
 80002fc:	68fb      	ldr	r3, [r7, #12]
 80002fe:	3301      	adds	r3, #1
 8000300:	60fb      	str	r3, [r7, #12]
 8000302:	68fb      	ldr	r3, [r7, #12]
 8000304:	2b07      	cmp	r3, #7
 8000306:	d9eb      	bls.n	80002e0 <main+0x13c>
 8000308:	4b15      	ldr	r3, [pc, #84]	; (8000360 <main+0x1bc>)
 800030a:	4a14      	ldr	r2, [pc, #80]	; (800035c <main+0x1b8>)
 800030c:	490a      	ldr	r1, [pc, #40]	; (8000338 <main+0x194>)
 800030e:	480c      	ldr	r0, [pc, #48]	; (8000340 <main+0x19c>)
 8000310:	f001 f836 	bl	8001380 <HAL_CAN_AddTxMessage>
 8000314:	4603      	mov	r3, r0
 8000316:	70fb      	strb	r3, [r7, #3]
 8000318:	78fb      	ldrb	r3, [r7, #3]
 800031a:	2b00      	cmp	r3, #0
 800031c:	d102      	bne.n	8000324 <main+0x180>
 800031e:	697b      	ldr	r3, [r7, #20]
 8000320:	3301      	adds	r3, #1
 8000322:	617b      	str	r3, [r7, #20]
 8000324:	697b      	ldr	r3, [r7, #20]
 8000326:	f5b3 7f11 	cmp.w	r3, #580	; 0x244
 800032a:	d3bf      	bcc.n	80002ac <main+0x108>
 800032c:	2300      	movs	r3, #0
 800032e:	74fb      	strb	r3, [r7, #19]
 8000330:	e790      	b.n	8000254 <main+0xb0>
 8000332:	bf00      	nop
 8000334:	08003e0c 	.word	0x08003e0c
 8000338:	20000570 	.word	0x20000570
 800033c:	20000530 	.word	0x20000530
 8000340:	20000504 	.word	0x20000504
 8000344:	40010800 	.word	0x40010800
 8000348:	40011000 	.word	0x40011000
 800034c:	200005a4 	.word	0x200005a4
 8000350:	20000094 	.word	0x20000094
 8000354:	2000052c 	.word	0x2000052c
 8000358:	08003e18 	.word	0x08003e18
 800035c:	2000055c 	.word	0x2000055c
 8000360:	20000564 	.word	0x20000564

08000364 <SystemClock_Config>:
 8000364:	b580      	push	{r7, lr}
 8000366:	b090      	sub	sp, #64	; 0x40
 8000368:	af00      	add	r7, sp, #0
 800036a:	f107 0318 	add.w	r3, r7, #24
 800036e:	2228      	movs	r2, #40	; 0x28
 8000370:	2100      	movs	r1, #0
 8000372:	4618      	mov	r0, r3
 8000374:	f003 f924 	bl	80035c0 <memset>
 8000378:	1d3b      	adds	r3, r7, #4
 800037a:	2200      	movs	r2, #0
 800037c:	601a      	str	r2, [r3, #0]
 800037e:	605a      	str	r2, [r3, #4]
 8000380:	609a      	str	r2, [r3, #8]
 8000382:	60da      	str	r2, [r3, #12]
 8000384:	611a      	str	r2, [r3, #16]
 8000386:	2301      	movs	r3, #1
 8000388:	61bb      	str	r3, [r7, #24]
 800038a:	f44f 3380 	mov.w	r3, #65536	; 0x10000
 800038e:	61fb      	str	r3, [r7, #28]
 8000390:	2300      	movs	r3, #0
 8000392:	637b      	str	r3, [r7, #52]	; 0x34
 8000394:	f107 0318 	add.w	r3, r7, #24
 8000398:	4618      	mov	r0, r3
 800039a:	f002 fceb 	bl	8002d74 <HAL_RCC_OscConfig>
 800039e:	4603      	mov	r3, r0
 80003a0:	2b00      	cmp	r3, #0
 80003a2:	d001      	beq.n	80003a8 <SystemClock_Config+0x44>
 80003a4:	f000 f906 	bl	80005b4 <Error_Handler>
 80003a8:	230f      	movs	r3, #15
 80003aa:	607b      	str	r3, [r7, #4]
 80003ac:	2301      	movs	r3, #1
 80003ae:	60bb      	str	r3, [r7, #8]
 80003b0:	2300      	movs	r3, #0
 80003b2:	60fb      	str	r3, [r7, #12]
 80003b4:	2300      	movs	r3, #0
 80003b6:	613b      	str	r3, [r7, #16]
 80003b8:	2300      	movs	r3, #0
 80003ba:	617b      	str	r3, [r7, #20]
 80003bc:	1d3b      	adds	r3, r7, #4
 80003be:	2100      	movs	r1, #0
 80003c0:	4618      	mov	r0, r3
 80003c2:	f002 ff59 	bl	8003278 <HAL_RCC_ClockConfig>
 80003c6:	4603      	mov	r3, r0
 80003c8:	2b00      	cmp	r3, #0
 80003ca:	d001      	beq.n	80003d0 <SystemClock_Config+0x6c>
 80003cc:	f000 f8f2 	bl	80005b4 <Error_Handler>
 80003d0:	bf00      	nop
 80003d2:	3740      	adds	r7, #64	; 0x40
 80003d4:	46bd      	mov	sp, r7
 80003d6:	bd80      	pop	{r7, pc}

080003d8 <MX_CAN_Init>:
 80003d8:	b580      	push	{r7, lr}
 80003da:	b08a      	sub	sp, #40	; 0x28
 80003dc:	af00      	add	r7, sp, #0
 80003de:	4b26      	ldr	r3, [pc, #152]	; (8000478 <MX_CAN_Init+0xa0>)
 80003e0:	4a26      	ldr	r2, [pc, #152]	; (800047c <MX_CAN_Init+0xa4>)
 80003e2:	601a      	str	r2, [r3, #0]
 80003e4:	4b24      	ldr	r3, [pc, #144]	; (8000478 <MX_CAN_Init+0xa0>)
 80003e6:	2210      	movs	r2, #16
 80003e8:	605a      	str	r2, [r3, #4]
 80003ea:	4b23      	ldr	r3, [pc, #140]	; (8000478 <MX_CAN_Init+0xa0>)
 80003ec:	2200      	movs	r2, #0
 80003ee:	609a      	str	r2, [r3, #8]
 80003f0:	4b21      	ldr	r3, [pc, #132]	; (8000478 <MX_CAN_Init+0xa0>)
 80003f2:	2200      	movs	r2, #0
 80003f4:	60da      	str	r2, [r3, #12]
 80003f6:	4b20      	ldr	r3, [pc, #128]	; (8000478 <MX_CAN_Init+0xa0>)
 80003f8:	f44f 3280 	mov.w	r2, #65536	; 0x10000
 80003fc:	611a      	str	r2, [r3, #16]
 80003fe:	4b1e      	ldr	r3, [pc, #120]	; (8000478 <MX_CAN_Init+0xa0>)
 8000400:	f44f 1280 	mov.w	r2, #1048576	; 0x100000
 8000404:	615a      	str	r2, [r3, #20]
 8000406:	4b1c      	ldr	r3, [pc, #112]	; (8000478 <MX_CAN_Init+0xa0>)
 8000408:	2200      	movs	r2, #0
 800040a:	761a      	strb	r2, [r3, #24]
 800040c:	4b1a      	ldr	r3, [pc, #104]	; (8000478 <MX_CAN_Init+0xa0>)
 800040e:	2200      	movs	r2, #0
 8000410:	765a      	strb	r2, [r3, #25]
 8000412:	4b19      	ldr	r3, [pc, #100]	; (8000478 <MX_CAN_Init+0xa0>)
 8000414:	2200      	movs	r2, #0
 8000416:	769a      	strb	r2, [r3, #26]
 8000418:	4b17      	ldr	r3, [pc, #92]	; (8000478 <MX_CAN_Init+0xa0>)
 800041a:	2201      	movs	r2, #1
 800041c:	76da      	strb	r2, [r3, #27]
 800041e:	4b16      	ldr	r3, [pc, #88]	; (8000478 <MX_CAN_Init+0xa0>)
 8000420:	2200      	movs	r2, #0
 8000422:	771a      	strb	r2, [r3, #28]
 8000424:	4b14      	ldr	r3, [pc, #80]	; (8000478 <MX_CAN_Init+0xa0>)
 8000426:	2201      	movs	r2, #1
 8000428:	775a      	strb	r2, [r3, #29]
 800042a:	4813      	ldr	r0, [pc, #76]	; (8000478 <MX_CAN_Init+0xa0>)
 800042c:	f000 fda0 	bl	8000f70 <HAL_CAN_Init>
 8000430:	4603      	mov	r3, r0
 8000432:	2b00      	cmp	r3, #0
 8000434:	d001      	beq.n	800043a <MX_CAN_Init+0x62>
 8000436:	f000 f8bd 	bl	80005b4 <Error_Handler>
 800043a:	2301      	movs	r3, #1
 800043c:	623b      	str	r3, [r7, #32]
 800043e:	230a      	movs	r3, #10
 8000440:	617b      	str	r3, [r7, #20]
 8000442:	2300      	movs	r3, #0
 8000444:	613b      	str	r3, [r7, #16]
 8000446:	f44f 53c7 	mov.w	r3, #6368	; 0x18e0
 800044a:	603b      	str	r3, [r7, #0]
 800044c:	2300      	movs	r3, #0
 800044e:	607b      	str	r3, [r7, #4]
 8000450:	f44f 13c7 	mov.w	r3, #1630208	; 0x18e000
 8000454:	60bb      	str	r3, [r7, #8]
 8000456:	2300      	movs	r3, #0
 8000458:	60fb      	str	r3, [r7, #12]
 800045a:	2300      	movs	r3, #0
 800045c:	61bb      	str	r3, [r7, #24]
 800045e:	2301      	movs	r3, #1
 8000460:	61fb      	str	r3, [r7, #28]
 8000462:	230d      	movs	r3, #13
 8000464:	627b      	str	r3, [r7, #36]	; 0x24
 8000466:	463b      	mov	r3, r7
 8000468:	4619      	mov	r1, r3
 800046a:	4803      	ldr	r0, [pc, #12]	; (8000478 <MX_CAN_Init+0xa0>)
 800046c:	f000 fe7b 	bl	8001166 <HAL_CAN_ConfigFilter>
 8000470:	bf00      	nop
 8000472:	3728      	adds	r7, #40	; 0x28
 8000474:	46bd      	mov	sp, r7
 8000476:	bd80      	pop	{r7, pc}
 8000478:	20000504 	.word	0x20000504
 800047c:	40006400 	.word	0x40006400

08000480 <MX_I2C1_Init>:
 8000480:	b580      	push	{r7, lr}
 8000482:	af00      	add	r7, sp, #0
 8000484:	4b12      	ldr	r3, [pc, #72]	; (80004d0 <MX_I2C1_Init+0x50>)
 8000486:	4a13      	ldr	r2, [pc, #76]	; (80004d4 <MX_I2C1_Init+0x54>)
 8000488:	601a      	str	r2, [r3, #0]
 800048a:	4b11      	ldr	r3, [pc, #68]	; (80004d0 <MX_I2C1_Init+0x50>)
 800048c:	4a12      	ldr	r2, [pc, #72]	; (80004d8 <MX_I2C1_Init+0x58>)
 800048e:	605a      	str	r2, [r3, #4]
 8000490:	4b0f      	ldr	r3, [pc, #60]	; (80004d0 <MX_I2C1_Init+0x50>)
 8000492:	2200      	movs	r2, #0
 8000494:	609a      	str	r2, [r3, #8]
 8000496:	4b0e      	ldr	r3, [pc, #56]	; (80004d0 <MX_I2C1_Init+0x50>)
 8000498:	2200      	movs	r2, #0
 800049a:	60da      	str	r2, [r3, #12]
 800049c:	4b0c      	ldr	r3, [pc, #48]	; (80004d0 <MX_I2C1_Init+0x50>)
 800049e:	f44f 4280 	mov.w	r2, #16384	; 0x4000
 80004a2:	611a      	str	r2, [r3, #16]
 80004a4:	4b0a      	ldr	r3, [pc, #40]	; (80004d0 <MX_I2C1_Init+0x50>)
 80004a6:	2200      	movs	r2, #0
 80004a8:	615a      	str	r2, [r3, #20]
 80004aa:	4b09      	ldr	r3, [pc, #36]	; (80004d0 <MX_I2C1_Init+0x50>)
 80004ac:	2200      	movs	r2, #0
 80004ae:	619a      	str	r2, [r3, #24]
 80004b0:	4b07      	ldr	r3, [pc, #28]	; (80004d0 <MX_I2C1_Init+0x50>)
 80004b2:	2200      	movs	r2, #0
 80004b4:	61da      	str	r2, [r3, #28]
 80004b6:	4b06      	ldr	r3, [pc, #24]	; (80004d0 <MX_I2C1_Init+0x50>)
 80004b8:	2200      	movs	r2, #0
 80004ba:	621a      	str	r2, [r3, #32]
 80004bc:	4804      	ldr	r0, [pc, #16]	; (80004d0 <MX_I2C1_Init+0x50>)
 80004be:	f001 fe8f 	bl	80021e0 <HAL_I2C_Init>
 80004c2:	4603      	mov	r3, r0
 80004c4:	2b00      	cmp	r3, #0
 80004c6:	d001      	beq.n	80004cc <MX_I2C1_Init+0x4c>
 80004c8:	f000 f874 	bl	80005b4 <Error_Handler>
 80004cc:	bf00      	nop
 80004ce:	bd80      	pop	{r7, pc}
 80004d0:	200004b0 	.word	0x200004b0
 80004d4:	40005400 	.word	0x40005400
 80004d8:	00061a80 	.word	0x00061a80

080004dc <MX_GPIO_Init>:
 80004dc:	b580      	push	{r7, lr}
 80004de:	b088      	sub	sp, #32
 80004e0:	af00      	add	r7, sp, #0
 80004e2:	f107 0310 	add.w	r3, r7, #16
 80004e6:	2200      	movs	r2, #0
 80004e8:	601a      	str	r2, [r3, #0]
 80004ea:	605a      	str	r2, [r3, #4]
 80004ec:	609a      	str	r2, [r3, #8]
 80004ee:	60da      	str	r2, [r3, #12]
 80004f0:	4b2d      	ldr	r3, [pc, #180]	; (80005a8 <MX_GPIO_Init+0xcc>)
 80004f2:	699b      	ldr	r3, [r3, #24]
 80004f4:	4a2c      	ldr	r2, [pc, #176]	; (80005a8 <MX_GPIO_Init+0xcc>)
 80004f6:	f043 0310 	orr.w	r3, r3, #16
 80004fa:	6193      	str	r3, [r2, #24]
 80004fc:	4b2a      	ldr	r3, [pc, #168]	; (80005a8 <MX_GPIO_Init+0xcc>)
 80004fe:	699b      	ldr	r3, [r3, #24]
 8000500:	f003 0310 	and.w	r3, r3, #16
 8000504:	60fb      	str	r3, [r7, #12]
 8000506:	68fb      	ldr	r3, [r7, #12]
 8000508:	4b27      	ldr	r3, [pc, #156]	; (80005a8 <MX_GPIO_Init+0xcc>)
 800050a:	699b      	ldr	r3, [r3, #24]
 800050c:	4a26      	ldr	r2, [pc, #152]	; (80005a8 <MX_GPIO_Init+0xcc>)
 800050e:	f043 0320 	orr.w	r3, r3, #32
 8000512:	6193      	str	r3, [r2, #24]
 8000514:	4b24      	ldr	r3, [pc, #144]	; (80005a8 <MX_GPIO_Init+0xcc>)
 8000516:	699b      	ldr	r3, [r3, #24]
 8000518:	f003 0320 	and.w	r3, r3, #32
 800051c:	60bb      	str	r3, [r7, #8]
 800051e:	68bb      	ldr	r3, [r7, #8]
 8000520:	4b21      	ldr	r3, [pc, #132]	; (80005a8 <MX_GPIO_Init+0xcc>)
 8000522:	699b      	ldr	r3, [r3, #24]
 8000524:	4a20      	ldr	r2, [pc, #128]	; (80005a8 <MX_GPIO_Init+0xcc>)
 8000526:	f043 0304 	orr.w	r3, r3, #4
 800052a:	6193      	str	r3, [r2, #24]
 800052c:	4b1e      	ldr	r3, [pc, #120]	; (80005a8 <MX_GPIO_Init+0xcc>)
 800052e:	699b      	ldr	r3, [r3, #24]
 8000530:	f003 0304 	and.w	r3, r3, #4
 8000534:	607b      	str	r3, [r7, #4]
 8000536:	687b      	ldr	r3, [r7, #4]
 8000538:	4b1b      	ldr	r3, [pc, #108]	; (80005a8 <MX_GPIO_Init+0xcc>)
 800053a:	699b      	ldr	r3, [r3, #24]
 800053c:	4a1a      	ldr	r2, [pc, #104]	; (80005a8 <MX_GPIO_Init+0xcc>)
 800053e:	f043 0308 	orr.w	r3, r3, #8
 8000542:	6193      	str	r3, [r2, #24]
 8000544:	4b18      	ldr	r3, [pc, #96]	; (80005a8 <MX_GPIO_Init+0xcc>)
 8000546:	699b      	ldr	r3, [r3, #24]
 8000548:	f003 0308 	and.w	r3, r3, #8
 800054c:	603b      	str	r3, [r7, #0]
 800054e:	683b      	ldr	r3, [r7, #0]
 8000550:	2200      	movs	r2, #0
 8000552:	f44f 5100 	mov.w	r1, #8192	; 0x2000
 8000556:	4815      	ldr	r0, [pc, #84]	; (80005ac <MX_GPIO_Init+0xd0>)
 8000558:	f001 fe10 	bl	800217c <HAL_GPIO_WritePin>
 800055c:	2200      	movs	r2, #0
 800055e:	2106      	movs	r1, #6
 8000560:	4813      	ldr	r0, [pc, #76]	; (80005b0 <MX_GPIO_Init+0xd4>)
 8000562:	f001 fe0b 	bl	800217c <HAL_GPIO_WritePin>
 8000566:	f44f 5300 	mov.w	r3, #8192	; 0x2000
 800056a:	613b      	str	r3, [r7, #16]
 800056c:	2301      	movs	r3, #1
 800056e:	617b      	str	r3, [r7, #20]
 8000570:	2300      	movs	r3, #0
 8000572:	61bb      	str	r3, [r7, #24]
 8000574:	2302      	movs	r3, #2
 8000576:	61fb      	str	r3, [r7, #28]
 8000578:	f107 0310 	add.w	r3, r7, #16
 800057c:	4619      	mov	r1, r3
 800057e:	480b      	ldr	r0, [pc, #44]	; (80005ac <MX_GPIO_Init+0xd0>)
 8000580:	f001 fc78 	bl	8001e74 <HAL_GPIO_Init>
 8000584:	2306      	movs	r3, #6
 8000586:	613b      	str	r3, [r7, #16]
 8000588:	2301      	movs	r3, #1
 800058a:	617b      	str	r3, [r7, #20]
 800058c:	2300      	movs	r3, #0
 800058e:	61bb      	str	r3, [r7, #24]
 8000590:	2302      	movs	r3, #2
 8000592:	61fb      	str	r3, [r7, #28]
 8000594:	f107 0310 	add.w	r3, r7, #16
 8000598:	4619      	mov	r1, r3
 800059a:	4805      	ldr	r0, [pc, #20]	; (80005b0 <MX_GPIO_Init+0xd4>)
 800059c:	f001 fc6a 	bl	8001e74 <HAL_GPIO_Init>
 80005a0:	bf00      	nop
 80005a2:	3720      	adds	r7, #32
 80005a4:	46bd      	mov	sp, r7
 80005a6:	bd80      	pop	{r7, pc}
 80005a8:	40021000 	.word	0x40021000
 80005ac:	40011000 	.word	0x40011000
 80005b0:	40010800 	.word	0x40010800

080005b4 <Error_Handler>:
 80005b4:	b480      	push	{r7}
 80005b6:	af00      	add	r7, sp, #0
 80005b8:	b672      	cpsid	i
 80005ba:	e7fe      	b.n	80005ba <Error_Handler+0x6>

080005bc <SSD1306_Init>:
 80005bc:	b580      	push	{r7, lr}
 80005be:	b082      	sub	sp, #8
 80005c0:	af00      	add	r7, sp, #0
 80005c2:	f000 fa5f 	bl	8000a84 <ssd1306_I2C_Init>
 80005c6:	f644 6320 	movw	r3, #20000	; 0x4e20
 80005ca:	2201      	movs	r2, #1
 80005cc:	2178      	movs	r1, #120	; 0x78
 80005ce:	485b      	ldr	r0, [pc, #364]	; (800073c <SSD1306_Init+0x180>)
 80005d0:	f002 f848 	bl	8002664 <HAL_I2C_IsDeviceReady>
 80005d4:	4603      	mov	r3, r0
 80005d6:	2b00      	cmp	r3, #0
 80005d8:	d001      	beq.n	80005de <SSD1306_Init+0x22>
 80005da:	2300      	movs	r3, #0
 80005dc:	e0a9      	b.n	8000732 <SSD1306_Init+0x176>
 80005de:	f640 13c4 	movw	r3, #2500	; 0x9c4
 80005e2:	607b      	str	r3, [r7, #4]
 80005e4:	e002      	b.n	80005ec <SSD1306_Init+0x30>
 80005e6:	687b      	ldr	r3, [r7, #4]
 80005e8:	3b01      	subs	r3, #1
 80005ea:	607b      	str	r3, [r7, #4]
 80005ec:	687b      	ldr	r3, [r7, #4]
 80005ee:	2b00      	cmp	r3, #0
 80005f0:	d1f9      	bne.n	80005e6 <SSD1306_Init+0x2a>
 80005f2:	22ae      	movs	r2, #174	; 0xae
 80005f4:	2100      	movs	r1, #0
 80005f6:	2078      	movs	r0, #120	; 0x78
 80005f8:	f000 fabe 	bl	8000b78 <ssd1306_I2C_Write>
 80005fc:	2220      	movs	r2, #32
 80005fe:	2100      	movs	r1, #0
 8000600:	2078      	movs	r0, #120	; 0x78
 8000602:	f000 fab9 	bl	8000b78 <ssd1306_I2C_Write>
 8000606:	2210      	movs	r2, #16
 8000608:	2100      	movs	r1, #0
 800060a:	2078      	movs	r0, #120	; 0x78
 800060c:	f000 fab4 	bl	8000b78 <ssd1306_I2C_Write>
 8000610:	22b0      	movs	r2, #176	; 0xb0
 8000612:	2100      	movs	r1, #0
 8000614:	2078      	movs	r0, #120	; 0x78
 8000616:	f000 faaf 	bl	8000b78 <ssd1306_I2C_Write>
 800061a:	22c8      	movs	r2, #200	; 0xc8
 800061c:	2100      	movs	r1, #0
 800061e:	2078      	movs	r0, #120	; 0x78
 8000620:	f000 faaa 	bl	8000b78 <ssd1306_I2C_Write>
 8000624:	2200      	movs	r2, #0
 8000626:	2100      	movs	r1, #0
 8000628:	2078      	movs	r0, #120	; 0x78
 800062a:	f000 faa5 	bl	8000b78 <ssd1306_I2C_Write>
 800062e:	2210      	movs	r2, #16
 8000630:	2100      	movs	r1, #0
 8000632:	2078      	movs	r0, #120	; 0x78
 8000634:	f000 faa0 	bl	8000b78 <ssd1306_I2C_Write>
 8000638:	2240      	movs	r2, #64	; 0x40
 800063a:	2100      	movs	r1, #0
 800063c:	2078      	movs	r0, #120	; 0x78
 800063e:	f000 fa9b 	bl	8000b78 <ssd1306_I2C_Write>
 8000642:	2281      	movs	r2, #129	; 0x81
 8000644:	2100      	movs	r1, #0
 8000646:	2078      	movs	r0, #120	; 0x78
 8000648:	f000 fa96 	bl	8000b78 <ssd1306_I2C_Write>
 800064c:	22ff      	movs	r2, #255	; 0xff
 800064e:	2100      	movs	r1, #0
 8000650:	2078      	movs	r0, #120	; 0x78
 8000652:	f000 fa91 	bl	8000b78 <ssd1306_I2C_Write>
 8000656:	22a1      	movs	r2, #161	; 0xa1
 8000658:	2100      	movs	r1, #0
 800065a:	2078      	movs	r0, #120	; 0x78
 800065c:	f000 fa8c 	bl	8000b78 <ssd1306_I2C_Write>
 8000660:	22a6      	movs	r2, #166	; 0xa6
 8000662:	2100      	movs	r1, #0
 8000664:	2078      	movs	r0, #120	; 0x78
 8000666:	f000 fa87 	bl	8000b78 <ssd1306_I2C_Write>
 800066a:	22a8      	movs	r2, #168	; 0xa8
 800066c:	2100      	movs	r1, #0
 800066e:	2078      	movs	r0, #120	; 0x78
 8000670:	f000 fa82 	bl	8000b78 <ssd1306_I2C_Write>
 8000674:	223f      	movs	r2, #63	; 0x3f
 8000676:	2100      	movs	r1, #0
 8000678:	2078      	movs	r0, #120	; 0x78
 800067a:	f000 fa7d 	bl	8000b78 <ssd1306_I2C_Write>
 800067e:	22a4      	movs	r2, #164	; 0xa4
 8000680:	2100      	movs	r1, #0
 8000682:	2078      	movs	r0, #120	; 0x78
 8000684:	f000 fa78 	bl	8000b78 <ssd1306_I2C_Write>
 8000688:	22d3      	movs	r2, #211	; 0xd3
 800068a:	2100      	movs	r1, #0
 800068c:	2078      	movs	r0, #120	; 0x78
 800068e:	f000 fa73 	bl	8000b78 <ssd1306_I2C_Write>
 8000692:	2200      	movs	r2, #0
 8000694:	2100      	movs	r1, #0
 8000696:	2078      	movs	r0, #120	; 0x78
 8000698:	f000 fa6e 	bl	8000b78 <ssd1306_I2C_Write>
 800069c:	22d5      	movs	r2, #213	; 0xd5
 800069e:	2100      	movs	r1, #0
 80006a0:	2078      	movs	r0, #120	; 0x78
 80006a2:	f000 fa69 	bl	8000b78 <ssd1306_I2C_Write>
 80006a6:	22f0      	movs	r2, #240	; 0xf0
 80006a8:	2100      	movs	r1, #0
 80006aa:	2078      	movs	r0, #120	; 0x78
 80006ac:	f000 fa64 	bl	8000b78 <ssd1306_I2C_Write>
 80006b0:	22d9      	movs	r2, #217	; 0xd9
 80006b2:	2100      	movs	r1, #0
 80006b4:	2078      	movs	r0, #120	; 0x78
 80006b6:	f000 fa5f 	bl	8000b78 <ssd1306_I2C_Write>
 80006ba:	2222      	movs	r2, #34	; 0x22
 80006bc:	2100      	movs	r1, #0
 80006be:	2078      	movs	r0, #120	; 0x78
 80006c0:	f000 fa5a 	bl	8000b78 <ssd1306_I2C_Write>
 80006c4:	22da      	movs	r2, #218	; 0xda
 80006c6:	2100      	movs	r1, #0
 80006c8:	2078      	movs	r0, #120	; 0x78
 80006ca:	f000 fa55 	bl	8000b78 <ssd1306_I2C_Write>
 80006ce:	2212      	movs	r2, #18
 80006d0:	2100      	movs	r1, #0
 80006d2:	2078      	movs	r0, #120	; 0x78
 80006d4:	f000 fa50 	bl	8000b78 <ssd1306_I2C_Write>
 80006d8:	22db      	movs	r2, #219	; 0xdb
 80006da:	2100      	movs	r1, #0
 80006dc:	2078      	movs	r0, #120	; 0x78
 80006de:	f000 fa4b 	bl	8000b78 <ssd1306_I2C_Write>
 80006e2:	2220      	movs	r2, #32
 80006e4:	2100      	movs	r1, #0
 80006e6:	2078      	movs	r0, #120	; 0x78
 80006e8:	f000 fa46 	bl	8000b78 <ssd1306_I2C_Write>
 80006ec:	228d      	movs	r2, #141	; 0x8d
 80006ee:	2100      	movs	r1, #0
 80006f0:	2078      	movs	r0, #120	; 0x78
 80006f2:	f000 fa41 	bl	8000b78 <ssd1306_I2C_Write>
 80006f6:	2214      	movs	r2, #20
 80006f8:	2100      	movs	r1, #0
 80006fa:	2078      	movs	r0, #120	; 0x78
 80006fc:	f000 fa3c 	bl	8000b78 <ssd1306_I2C_Write>
 8000700:	22af      	movs	r2, #175	; 0xaf
 8000702:	2100      	movs	r1, #0
 8000704:	2078      	movs	r0, #120	; 0x78
 8000706:	f000 fa37 	bl	8000b78 <ssd1306_I2C_Write>
 800070a:	222e      	movs	r2, #46	; 0x2e
 800070c:	2100      	movs	r1, #0
 800070e:	2078      	movs	r0, #120	; 0x78
 8000710:	f000 fa32 	bl	8000b78 <ssd1306_I2C_Write>
 8000714:	2000      	movs	r0, #0
 8000716:	f000 f843 	bl	80007a0 <SSD1306_Fill>
 800071a:	f000 f813 	bl	8000744 <SSD1306_UpdateScreen>
 800071e:	4b08      	ldr	r3, [pc, #32]	; (8000740 <SSD1306_Init+0x184>)
 8000720:	2200      	movs	r2, #0
 8000722:	801a      	strh	r2, [r3, #0]
 8000724:	4b06      	ldr	r3, [pc, #24]	; (8000740 <SSD1306_Init+0x184>)
 8000726:	2200      	movs	r2, #0
 8000728:	805a      	strh	r2, [r3, #2]
 800072a:	4b05      	ldr	r3, [pc, #20]	; (8000740 <SSD1306_Init+0x184>)
 800072c:	2201      	movs	r2, #1
 800072e:	715a      	strb	r2, [r3, #5]
 8000730:	2301      	movs	r3, #1
 8000732:	4618      	mov	r0, r3
 8000734:	3708      	adds	r7, #8
 8000736:	46bd      	mov	sp, r7
 8000738:	bd80      	pop	{r7, pc}
 800073a:	bf00      	nop
 800073c:	200004b0 	.word	0x200004b0
 8000740:	20000498 	.word	0x20000498

08000744 <SSD1306_UpdateScreen>:
 8000744:	b580      	push	{r7, lr}
 8000746:	b082      	sub	sp, #8
 8000748:	af00      	add	r7, sp, #0
 800074a:	2300      	movs	r3, #0
 800074c:	71fb      	strb	r3, [r7, #7]
 800074e:	e01d      	b.n	800078c <SSD1306_UpdateScreen+0x48>
 8000750:	79fb      	ldrb	r3, [r7, #7]
 8000752:	3b50      	subs	r3, #80	; 0x50
 8000754:	b2db      	uxtb	r3, r3
 8000756:	461a      	mov	r2, r3
 8000758:	2100      	movs	r1, #0
 800075a:	2078      	movs	r0, #120	; 0x78
 800075c:	f000 fa0c 	bl	8000b78 <ssd1306_I2C_Write>
 8000760:	2200      	movs	r2, #0
 8000762:	2100      	movs	r1, #0
 8000764:	2078      	movs	r0, #120	; 0x78
 8000766:	f000 fa07 	bl	8000b78 <ssd1306_I2C_Write>
 800076a:	2210      	movs	r2, #16
 800076c:	2100      	movs	r1, #0
 800076e:	2078      	movs	r0, #120	; 0x78
 8000770:	f000 fa02 	bl	8000b78 <ssd1306_I2C_Write>
 8000774:	79fb      	ldrb	r3, [r7, #7]
 8000776:	01db      	lsls	r3, r3, #7
 8000778:	4a08      	ldr	r2, [pc, #32]	; (800079c <SSD1306_UpdateScreen+0x58>)
 800077a:	441a      	add	r2, r3
 800077c:	2380      	movs	r3, #128	; 0x80
 800077e:	2140      	movs	r1, #64	; 0x40
 8000780:	2078      	movs	r0, #120	; 0x78
 8000782:	f000 f993 	bl	8000aac <ssd1306_I2C_WriteMulti>
 8000786:	79fb      	ldrb	r3, [r7, #7]
 8000788:	3301      	adds	r3, #1
 800078a:	71fb      	strb	r3, [r7, #7]
 800078c:	79fb      	ldrb	r3, [r7, #7]
 800078e:	2b07      	cmp	r3, #7
 8000790:	d9de      	bls.n	8000750 <SSD1306_UpdateScreen+0xc>
 8000792:	bf00      	nop
 8000794:	bf00      	nop
 8000796:	3708      	adds	r7, #8
 8000798:	46bd      	mov	sp, r7
 800079a:	bd80      	pop	{r7, pc}
 800079c:	20000098 	.word	0x20000098

080007a0 <SSD1306_Fill>:
 80007a0:	b580      	push	{r7, lr}
 80007a2:	b082      	sub	sp, #8
 80007a4:	af00      	add	r7, sp, #0
 80007a6:	4603      	mov	r3, r0
 80007a8:	71fb      	strb	r3, [r7, #7]
 80007aa:	79fb      	ldrb	r3, [r7, #7]
 80007ac:	2b00      	cmp	r3, #0
 80007ae:	d101      	bne.n	80007b4 <SSD1306_Fill+0x14>
 80007b0:	2300      	movs	r3, #0
 80007b2:	e000      	b.n	80007b6 <SSD1306_Fill+0x16>
 80007b4:	23ff      	movs	r3, #255	; 0xff
 80007b6:	f44f 6280 	mov.w	r2, #1024	; 0x400
 80007ba:	4619      	mov	r1, r3
 80007bc:	4803      	ldr	r0, [pc, #12]	; (80007cc <SSD1306_Fill+0x2c>)
 80007be:	f002 feff 	bl	80035c0 <memset>
 80007c2:	bf00      	nop
 80007c4:	3708      	adds	r7, #8
 80007c6:	46bd      	mov	sp, r7
 80007c8:	bd80      	pop	{r7, pc}
 80007ca:	bf00      	nop
 80007cc:	20000098 	.word	0x20000098

080007d0 <SSD1306_DrawPixel>:
 80007d0:	b480      	push	{r7}
 80007d2:	b083      	sub	sp, #12
 80007d4:	af00      	add	r7, sp, #0
 80007d6:	4603      	mov	r3, r0
 80007d8:	80fb      	strh	r3, [r7, #6]
 80007da:	460b      	mov	r3, r1
 80007dc:	80bb      	strh	r3, [r7, #4]
 80007de:	4613      	mov	r3, r2
 80007e0:	70fb      	strb	r3, [r7, #3]
 80007e2:	88fb      	ldrh	r3, [r7, #6]
 80007e4:	2b7f      	cmp	r3, #127	; 0x7f
 80007e6:	d848      	bhi.n	800087a <SSD1306_DrawPixel+0xaa>
 80007e8:	88bb      	ldrh	r3, [r7, #4]
 80007ea:	2b3f      	cmp	r3, #63	; 0x3f
 80007ec:	d845      	bhi.n	800087a <SSD1306_DrawPixel+0xaa>
 80007ee:	4b25      	ldr	r3, [pc, #148]	; (8000884 <SSD1306_DrawPixel+0xb4>)
 80007f0:	791b      	ldrb	r3, [r3, #4]
 80007f2:	2b00      	cmp	r3, #0
 80007f4:	d006      	beq.n	8000804 <SSD1306_DrawPixel+0x34>
 80007f6:	78fb      	ldrb	r3, [r7, #3]
 80007f8:	2b00      	cmp	r3, #0
 80007fa:	bf0c      	ite	eq
 80007fc:	2301      	moveq	r3, #1
 80007fe:	2300      	movne	r3, #0
 8000800:	b2db      	uxtb	r3, r3
 8000802:	70fb      	strb	r3, [r7, #3]
 8000804:	78fb      	ldrb	r3, [r7, #3]
 8000806:	2b01      	cmp	r3, #1
 8000808:	d11a      	bne.n	8000840 <SSD1306_DrawPixel+0x70>
 800080a:	88fa      	ldrh	r2, [r7, #6]
 800080c:	88bb      	ldrh	r3, [r7, #4]
 800080e:	08db      	lsrs	r3, r3, #3
 8000810:	b298      	uxth	r0, r3
 8000812:	4603      	mov	r3, r0
 8000814:	01db      	lsls	r3, r3, #7
 8000816:	4413      	add	r3, r2
 8000818:	4a1b      	ldr	r2, [pc, #108]	; (8000888 <SSD1306_DrawPixel+0xb8>)
 800081a:	5cd3      	ldrb	r3, [r2, r3]
 800081c:	b25a      	sxtb	r2, r3
 800081e:	88bb      	ldrh	r3, [r7, #4]
 8000820:	f003 0307 	and.w	r3, r3, #7
 8000824:	2101      	movs	r1, #1
 8000826:	fa01 f303 	lsl.w	r3, r1, r3
 800082a:	b25b      	sxtb	r3, r3
 800082c:	4313      	orrs	r3, r2
 800082e:	b259      	sxtb	r1, r3
 8000830:	88fa      	ldrh	r2, [r7, #6]
 8000832:	4603      	mov	r3, r0
 8000834:	01db      	lsls	r3, r3, #7
 8000836:	4413      	add	r3, r2
 8000838:	b2c9      	uxtb	r1, r1
 800083a:	4a13      	ldr	r2, [pc, #76]	; (8000888 <SSD1306_DrawPixel+0xb8>)
 800083c:	54d1      	strb	r1, [r2, r3]
 800083e:	e01d      	b.n	800087c <SSD1306_DrawPixel+0xac>
 8000840:	88fa      	ldrh	r2, [r7, #6]
 8000842:	88bb      	ldrh	r3, [r7, #4]
 8000844:	08db      	lsrs	r3, r3, #3
 8000846:	b298      	uxth	r0, r3
 8000848:	4603      	mov	r3, r0
 800084a:	01db      	lsls	r3, r3, #7
 800084c:	4413      	add	r3, r2
 800084e:	4a0e      	ldr	r2, [pc, #56]	; (8000888 <SSD1306_DrawPixel+0xb8>)
 8000850:	5cd3      	ldrb	r3, [r2, r3]
 8000852:	b25a      	sxtb	r2, r3
 8000854:	88bb      	ldrh	r3, [r7, #4]
 8000856:	f003 0307 	and.w	r3, r3, #7
 800085a:	2101      	movs	r1, #1
 800085c:	fa01 f303 	lsl.w	r3, r1, r3
 8000860:	b25b      	sxtb	r3, r3
 8000862:	43db      	mvns	r3, r3
 8000864:	b25b      	sxtb	r3, r3
 8000866:	4013      	ands	r3, r2
 8000868:	b259      	sxtb	r1, r3
 800086a:	88fa      	ldrh	r2, [r7, #6]
 800086c:	4603      	mov	r3, r0
 800086e:	01db      	lsls	r3, r3, #7
 8000870:	4413      	add	r3, r2
 8000872:	b2c9      	uxtb	r1, r1
 8000874:	4a04      	ldr	r2, [pc, #16]	; (8000888 <SSD1306_DrawPixel+0xb8>)
 8000876:	54d1      	strb	r1, [r2, r3]
 8000878:	e000      	b.n	800087c <SSD1306_DrawPixel+0xac>
 800087a:	bf00      	nop
 800087c:	370c      	adds	r7, #12
 800087e:	46bd      	mov	sp, r7
 8000880:	bc80      	pop	{r7}
 8000882:	4770      	bx	lr
 8000884:	20000498 	.word	0x20000498
 8000888:	20000098 	.word	0x20000098

0800088c <SSD1306_GotoXY>:
 800088c:	b480      	push	{r7}
 800088e:	b083      	sub	sp, #12
 8000890:	af00      	add	r7, sp, #0
 8000892:	4603      	mov	r3, r0
 8000894:	460a      	mov	r2, r1
 8000896:	80fb      	strh	r3, [r7, #6]
 8000898:	4613      	mov	r3, r2
 800089a:	80bb      	strh	r3, [r7, #4]
 800089c:	4a05      	ldr	r2, [pc, #20]	; (80008b4 <SSD1306_GotoXY+0x28>)
 800089e:	88fb      	ldrh	r3, [r7, #6]
 80008a0:	8013      	strh	r3, [r2, #0]
 80008a2:	4a04      	ldr	r2, [pc, #16]	; (80008b4 <SSD1306_GotoXY+0x28>)
 80008a4:	88bb      	ldrh	r3, [r7, #4]
 80008a6:	8053      	strh	r3, [r2, #2]
 80008a8:	bf00      	nop
 80008aa:	370c      	adds	r7, #12
 80008ac:	46bd      	mov	sp, r7
 80008ae:	bc80      	pop	{r7}
 80008b0:	4770      	bx	lr
 80008b2:	bf00      	nop
 80008b4:	20000498 	.word	0x20000498

080008b8 <SSD1306_Putc>:
 80008b8:	b580      	push	{r7, lr}
 80008ba:	b086      	sub	sp, #24
 80008bc:	af00      	add	r7, sp, #0
 80008be:	4603      	mov	r3, r0
 80008c0:	6039      	str	r1, [r7, #0]
 80008c2:	71fb      	strb	r3, [r7, #7]
 80008c4:	4613      	mov	r3, r2
 80008c6:	71bb      	strb	r3, [r7, #6]
 80008c8:	4b3a      	ldr	r3, [pc, #232]	; (80009b4 <SSD1306_Putc+0xfc>)
 80008ca:	881b      	ldrh	r3, [r3, #0]
 80008cc:	461a      	mov	r2, r3
 80008ce:	683b      	ldr	r3, [r7, #0]
 80008d0:	781b      	ldrb	r3, [r3, #0]
 80008d2:	4413      	add	r3, r2
 80008d4:	2b7f      	cmp	r3, #127	; 0x7f
 80008d6:	dc07      	bgt.n	80008e8 <SSD1306_Putc+0x30>
 80008d8:	4b36      	ldr	r3, [pc, #216]	; (80009b4 <SSD1306_Putc+0xfc>)
 80008da:	885b      	ldrh	r3, [r3, #2]
 80008dc:	461a      	mov	r2, r3
 80008de:	683b      	ldr	r3, [r7, #0]
 80008e0:	785b      	ldrb	r3, [r3, #1]
 80008e2:	4413      	add	r3, r2
 80008e4:	2b3f      	cmp	r3, #63	; 0x3f
 80008e6:	dd01      	ble.n	80008ec <SSD1306_Putc+0x34>
 80008e8:	2300      	movs	r3, #0
 80008ea:	e05e      	b.n	80009aa <SSD1306_Putc+0xf2>
 80008ec:	2300      	movs	r3, #0
 80008ee:	617b      	str	r3, [r7, #20]
 80008f0:	e04b      	b.n	800098a <SSD1306_Putc+0xd2>
 80008f2:	683b      	ldr	r3, [r7, #0]
 80008f4:	685a      	ldr	r2, [r3, #4]
 80008f6:	79fb      	ldrb	r3, [r7, #7]
 80008f8:	3b20      	subs	r3, #32
 80008fa:	6839      	ldr	r1, [r7, #0]
 80008fc:	7849      	ldrb	r1, [r1, #1]
 80008fe:	fb01 f303 	mul.w	r3, r1, r3
 8000902:	4619      	mov	r1, r3
 8000904:	697b      	ldr	r3, [r7, #20]
 8000906:	440b      	add	r3, r1
 8000908:	005b      	lsls	r3, r3, #1
 800090a:	4413      	add	r3, r2
 800090c:	881b      	ldrh	r3, [r3, #0]
 800090e:	60fb      	str	r3, [r7, #12]
 8000910:	2300      	movs	r3, #0
 8000912:	613b      	str	r3, [r7, #16]
 8000914:	e030      	b.n	8000978 <SSD1306_Putc+0xc0>
 8000916:	68fa      	ldr	r2, [r7, #12]
 8000918:	693b      	ldr	r3, [r7, #16]
 800091a:	fa02 f303 	lsl.w	r3, r2, r3
 800091e:	f403 4300 	and.w	r3, r3, #32768	; 0x8000
 8000922:	2b00      	cmp	r3, #0
 8000924:	d010      	beq.n	8000948 <SSD1306_Putc+0x90>
 8000926:	4b23      	ldr	r3, [pc, #140]	; (80009b4 <SSD1306_Putc+0xfc>)
 8000928:	881a      	ldrh	r2, [r3, #0]
 800092a:	693b      	ldr	r3, [r7, #16]
 800092c:	b29b      	uxth	r3, r3
 800092e:	4413      	add	r3, r2
 8000930:	b298      	uxth	r0, r3
 8000932:	4b20      	ldr	r3, [pc, #128]	; (80009b4 <SSD1306_Putc+0xfc>)
 8000934:	885a      	ldrh	r2, [r3, #2]
 8000936:	697b      	ldr	r3, [r7, #20]
 8000938:	b29b      	uxth	r3, r3
 800093a:	4413      	add	r3, r2
 800093c:	b29b      	uxth	r3, r3
 800093e:	79ba      	ldrb	r2, [r7, #6]
 8000940:	4619      	mov	r1, r3
 8000942:	f7ff ff45 	bl	80007d0 <SSD1306_DrawPixel>
 8000946:	e014      	b.n	8000972 <SSD1306_Putc+0xba>
 8000948:	4b1a      	ldr	r3, [pc, #104]	; (80009b4 <SSD1306_Putc+0xfc>)
 800094a:	881a      	ldrh	r2, [r3, #0]
 800094c:	693b      	ldr	r3, [r7, #16]
 800094e:	b29b      	uxth	r3, r3
 8000950:	4413      	add	r3, r2
 8000952:	b298      	uxth	r0, r3
 8000954:	4b17      	ldr	r3, [pc, #92]	; (80009b4 <SSD1306_Putc+0xfc>)
 8000956:	885a      	ldrh	r2, [r3, #2]
 8000958:	697b      	ldr	r3, [r7, #20]
 800095a:	b29b      	uxth	r3, r3
 800095c:	4413      	add	r3, r2
 800095e:	b299      	uxth	r1, r3
 8000960:	79bb      	ldrb	r3, [r7, #6]
 8000962:	2b00      	cmp	r3, #0
 8000964:	bf0c      	ite	eq
 8000966:	2301      	moveq	r3, #1
 8000968:	2300      	movne	r3, #0
 800096a:	b2db      	uxtb	r3, r3
 800096c:	461a      	mov	r2, r3
 800096e:	f7ff ff2f 	bl	80007d0 <SSD1306_DrawPixel>
 8000972:	693b      	ldr	r3, [r7, #16]
 8000974:	3301      	adds	r3, #1
 8000976:	613b      	str	r3, [r7, #16]
 8000978:	683b      	ldr	r3, [r7, #0]
 800097a:	781b      	ldrb	r3, [r3, #0]
 800097c:	461a      	mov	r2, r3
 800097e:	693b      	ldr	r3, [r7, #16]
 8000980:	4293      	cmp	r3, r2
 8000982:	d3c8      	bcc.n	8000916 <SSD1306_Putc+0x5e>
 8000984:	697b      	ldr	r3, [r7, #20]
 8000986:	3301      	adds	r3, #1
 8000988:	617b      	str	r3, [r7, #20]
 800098a:	683b      	ldr	r3, [r7, #0]
 800098c:	785b      	ldrb	r3, [r3, #1]
 800098e:	461a      	mov	r2, r3
 8000990:	697b      	ldr	r3, [r7, #20]
 8000992:	4293      	cmp	r3, r2
 8000994:	d3ad      	bcc.n	80008f2 <SSD1306_Putc+0x3a>
 8000996:	4b07      	ldr	r3, [pc, #28]	; (80009b4 <SSD1306_Putc+0xfc>)
 8000998:	881a      	ldrh	r2, [r3, #0]
 800099a:	683b      	ldr	r3, [r7, #0]
 800099c:	781b      	ldrb	r3, [r3, #0]
 800099e:	b29b      	uxth	r3, r3
 80009a0:	4413      	add	r3, r2
 80009a2:	b29a      	uxth	r2, r3
 80009a4:	4b03      	ldr	r3, [pc, #12]	; (80009b4 <SSD1306_Putc+0xfc>)
 80009a6:	801a      	strh	r2, [r3, #0]
 80009a8:	79fb      	ldrb	r3, [r7, #7]
 80009aa:	4618      	mov	r0, r3
 80009ac:	3718      	adds	r7, #24
 80009ae:	46bd      	mov	sp, r7
 80009b0:	bd80      	pop	{r7, pc}
 80009b2:	bf00      	nop
 80009b4:	20000498 	.word	0x20000498

080009b8 <SSD1306_Puts>:
 80009b8:	b580      	push	{r7, lr}
 80009ba:	b084      	sub	sp, #16
 80009bc:	af00      	add	r7, sp, #0
 80009be:	60f8      	str	r0, [r7, #12]
 80009c0:	60b9      	str	r1, [r7, #8]
 80009c2:	4613      	mov	r3, r2
 80009c4:	71fb      	strb	r3, [r7, #7]
 80009c6:	e012      	b.n	80009ee <SSD1306_Puts+0x36>
 80009c8:	68fb      	ldr	r3, [r7, #12]
 80009ca:	781b      	ldrb	r3, [r3, #0]
 80009cc:	79fa      	ldrb	r2, [r7, #7]
 80009ce:	68b9      	ldr	r1, [r7, #8]
 80009d0:	4618      	mov	r0, r3
 80009d2:	f7ff ff71 	bl	80008b8 <SSD1306_Putc>
 80009d6:	4603      	mov	r3, r0
 80009d8:	461a      	mov	r2, r3
 80009da:	68fb      	ldr	r3, [r7, #12]
 80009dc:	781b      	ldrb	r3, [r3, #0]
 80009de:	429a      	cmp	r2, r3
 80009e0:	d002      	beq.n	80009e8 <SSD1306_Puts+0x30>
 80009e2:	68fb      	ldr	r3, [r7, #12]
 80009e4:	781b      	ldrb	r3, [r3, #0]
 80009e6:	e008      	b.n	80009fa <SSD1306_Puts+0x42>
 80009e8:	68fb      	ldr	r3, [r7, #12]
 80009ea:	3301      	adds	r3, #1
 80009ec:	60fb      	str	r3, [r7, #12]
 80009ee:	68fb      	ldr	r3, [r7, #12]
 80009f0:	781b      	ldrb	r3, [r3, #0]
 80009f2:	2b00      	cmp	r3, #0
 80009f4:	d1e8      	bne.n	80009c8 <SSD1306_Puts+0x10>
 80009f6:	68fb      	ldr	r3, [r7, #12]
 80009f8:	781b      	ldrb	r3, [r3, #0]
 80009fa:	4618      	mov	r0, r3
 80009fc:	3710      	adds	r7, #16
 80009fe:	46bd      	mov	sp, r7
 8000a00:	bd80      	pop	{r7, pc}

08000a02 <SSD1306_Clear>:
 8000a02:	b580      	push	{r7, lr}
 8000a04:	af00      	add	r7, sp, #0
 8000a06:	2000      	movs	r0, #0
 8000a08:	f7ff feca 	bl	80007a0 <SSD1306_Fill>
 8000a0c:	f7ff fe9a 	bl	8000744 <SSD1306_UpdateScreen>
 8000a10:	bf00      	nop
 8000a12:	bd80      	pop	{r7, pc}

08000a14 <SSD1306_Println>:
 8000a14:	b40f      	push	{r0, r1, r2, r3}
 8000a16:	b580      	push	{r7, lr}
 8000a18:	b086      	sub	sp, #24
 8000a1a:	af00      	add	r7, sp, #0
 8000a1c:	2300      	movs	r3, #0
 8000a1e:	713b      	strb	r3, [r7, #4]
 8000a20:	f107 0324 	add.w	r3, r7, #36	; 0x24
 8000a24:	603b      	str	r3, [r7, #0]
 8000a26:	1d3b      	adds	r3, r7, #4
 8000a28:	683a      	ldr	r2, [r7, #0]
 8000a2a:	6a39      	ldr	r1, [r7, #32]
 8000a2c:	4618      	mov	r0, r3
 8000a2e:	f002 fde5 	bl	80035fc <vsiprintf>
 8000a32:	4b12      	ldr	r3, [pc, #72]	; (8000a7c <SSD1306_Println+0x68>)
 8000a34:	781b      	ldrb	r3, [r3, #0]
 8000a36:	2b28      	cmp	r3, #40	; 0x28
 8000a38:	d904      	bls.n	8000a44 <SSD1306_Println+0x30>
 8000a3a:	f7ff ffe2 	bl	8000a02 <SSD1306_Clear>
 8000a3e:	4b0f      	ldr	r3, [pc, #60]	; (8000a7c <SSD1306_Println+0x68>)
 8000a40:	2200      	movs	r2, #0
 8000a42:	701a      	strb	r2, [r3, #0]
 8000a44:	4b0d      	ldr	r3, [pc, #52]	; (8000a7c <SSD1306_Println+0x68>)
 8000a46:	781b      	ldrb	r3, [r3, #0]
 8000a48:	b29b      	uxth	r3, r3
 8000a4a:	4619      	mov	r1, r3
 8000a4c:	2000      	movs	r0, #0
 8000a4e:	f7ff ff1d 	bl	800088c <SSD1306_GotoXY>
 8000a52:	1d3b      	adds	r3, r7, #4
 8000a54:	2201      	movs	r2, #1
 8000a56:	490a      	ldr	r1, [pc, #40]	; (8000a80 <SSD1306_Println+0x6c>)
 8000a58:	4618      	mov	r0, r3
 8000a5a:	f7ff ffad 	bl	80009b8 <SSD1306_Puts>
 8000a5e:	4b07      	ldr	r3, [pc, #28]	; (8000a7c <SSD1306_Println+0x68>)
 8000a60:	781b      	ldrb	r3, [r3, #0]
 8000a62:	3314      	adds	r3, #20
 8000a64:	b2da      	uxtb	r2, r3
 8000a66:	4b05      	ldr	r3, [pc, #20]	; (8000a7c <SSD1306_Println+0x68>)
 8000a68:	701a      	strb	r2, [r3, #0]
 8000a6a:	f7ff fe6b 	bl	8000744 <SSD1306_UpdateScreen>
 8000a6e:	bf00      	nop
 8000a70:	3718      	adds	r7, #24
 8000a72:	46bd      	mov	sp, r7
 8000a74:	e8bd 4080 	ldmia.w	sp!, {r7, lr}
 8000a78:	b004      	add	sp, #16
 8000a7a:	4770      	bx	lr
 8000a7c:	2000049e 	.word	0x2000049e
 8000a80:	20000000 	.word	0x20000000

08000a84 <ssd1306_I2C_Init>:
 8000a84:	b480      	push	{r7}
 8000a86:	b083      	sub	sp, #12
 8000a88:	af00      	add	r7, sp, #0
 8000a8a:	4b07      	ldr	r3, [pc, #28]	; (8000aa8 <ssd1306_I2C_Init+0x24>)
 8000a8c:	607b      	str	r3, [r7, #4]
 8000a8e:	e002      	b.n	8000a96 <ssd1306_I2C_Init+0x12>
 8000a90:	687b      	ldr	r3, [r7, #4]
 8000a92:	3b01      	subs	r3, #1
 8000a94:	607b      	str	r3, [r7, #4]
 8000a96:	687b      	ldr	r3, [r7, #4]
 8000a98:	2b00      	cmp	r3, #0
 8000a9a:	d1f9      	bne.n	8000a90 <ssd1306_I2C_Init+0xc>
 8000a9c:	bf00      	nop
 8000a9e:	bf00      	nop
 8000aa0:	370c      	adds	r7, #12
 8000aa2:	46bd      	mov	sp, r7
 8000aa4:	bc80      	pop	{r7}
 8000aa6:	4770      	bx	lr
 8000aa8:	0003d090 	.word	0x0003d090

08000aac <ssd1306_I2C_WriteMulti>:
 8000aac:	b590      	push	{r4, r7, lr}
 8000aae:	b0c7      	sub	sp, #284	; 0x11c
 8000ab0:	af02      	add	r7, sp, #8
 8000ab2:	4604      	mov	r4, r0
 8000ab4:	4608      	mov	r0, r1
 8000ab6:	f507 7188 	add.w	r1, r7, #272	; 0x110
 8000aba:	f5a1 7188 	sub.w	r1, r1, #272	; 0x110
 8000abe:	600a      	str	r2, [r1, #0]
 8000ac0:	4619      	mov	r1, r3
 8000ac2:	f507 7388 	add.w	r3, r7, #272	; 0x110
 8000ac6:	f2a3 1309 	subw	r3, r3, #265	; 0x109
 8000aca:	4622      	mov	r2, r4
 8000acc:	701a      	strb	r2, [r3, #0]
 8000ace:	f507 7388 	add.w	r3, r7, #272	; 0x110
 8000ad2:	f5a3 7385 	sub.w	r3, r3, #266	; 0x10a
 8000ad6:	4602      	mov	r2, r0
 8000ad8:	701a      	strb	r2, [r3, #0]
 8000ada:	f507 7388 	add.w	r3, r7, #272	; 0x110
 8000ade:	f5a3 7386 	sub.w	r3, r3, #268	; 0x10c
 8000ae2:	460a      	mov	r2, r1
 8000ae4:	801a      	strh	r2, [r3, #0]
 8000ae6:	f507 7388 	add.w	r3, r7, #272	; 0x110
 8000aea:	f5a3 7382 	sub.w	r3, r3, #260	; 0x104
 8000aee:	f507 7288 	add.w	r2, r7, #272	; 0x110
 8000af2:	f5a2 7285 	sub.w	r2, r2, #266	; 0x10a
 8000af6:	7812      	ldrb	r2, [r2, #0]
 8000af8:	701a      	strb	r2, [r3, #0]
 8000afa:	2300      	movs	r3, #0
 8000afc:	f887 310f 	strb.w	r3, [r7, #271]	; 0x10f
 8000b00:	e015      	b.n	8000b2e <ssd1306_I2C_WriteMulti+0x82>
 8000b02:	f897 310f 	ldrb.w	r3, [r7, #271]	; 0x10f
 8000b06:	f507 7288 	add.w	r2, r7, #272	; 0x110
 8000b0a:	f5a2 7288 	sub.w	r2, r2, #272	; 0x110
 8000b0e:	6812      	ldr	r2, [r2, #0]
 8000b10:	441a      	add	r2, r3
 8000b12:	f897 310f 	ldrb.w	r3, [r7, #271]	; 0x10f
 8000b16:	3301      	adds	r3, #1
 8000b18:	7811      	ldrb	r1, [r2, #0]
 8000b1a:	f507 7288 	add.w	r2, r7, #272	; 0x110
 8000b1e:	f5a2 7282 	sub.w	r2, r2, #260	; 0x104
 8000b22:	54d1      	strb	r1, [r2, r3]
 8000b24:	f897 310f 	ldrb.w	r3, [r7, #271]	; 0x10f
 8000b28:	3301      	adds	r3, #1
 8000b2a:	f887 310f 	strb.w	r3, [r7, #271]	; 0x10f
 8000b2e:	f897 310f 	ldrb.w	r3, [r7, #271]	; 0x10f
 8000b32:	b29b      	uxth	r3, r3
 8000b34:	f507 7288 	add.w	r2, r7, #272	; 0x110
 8000b38:	f5a2 7286 	sub.w	r2, r2, #268	; 0x10c
 8000b3c:	8812      	ldrh	r2, [r2, #0]
 8000b3e:	429a      	cmp	r2, r3
 8000b40:	d8df      	bhi.n	8000b02 <ssd1306_I2C_WriteMulti+0x56>
 8000b42:	f507 7388 	add.w	r3, r7, #272	; 0x110
 8000b46:	f2a3 1309 	subw	r3, r3, #265	; 0x109
 8000b4a:	781b      	ldrb	r3, [r3, #0]
 8000b4c:	b299      	uxth	r1, r3
 8000b4e:	f507 7388 	add.w	r3, r7, #272	; 0x110
 8000b52:	f5a3 7386 	sub.w	r3, r3, #268	; 0x10c
 8000b56:	881b      	ldrh	r3, [r3, #0]
 8000b58:	3301      	adds	r3, #1
 8000b5a:	b29b      	uxth	r3, r3
 8000b5c:	f107 020c 	add.w	r2, r7, #12
 8000b60:	200a      	movs	r0, #10
 8000b62:	9000      	str	r0, [sp, #0]
 8000b64:	4803      	ldr	r0, [pc, #12]	; (8000b74 <ssd1306_I2C_WriteMulti+0xc8>)
 8000b66:	f001 fc7f 	bl	8002468 <HAL_I2C_Master_Transmit>
 8000b6a:	bf00      	nop
 8000b6c:	f507 778a 	add.w	r7, r7, #276	; 0x114
 8000b70:	46bd      	mov	sp, r7
 8000b72:	bd90      	pop	{r4, r7, pc}
 8000b74:	200004b0 	.word	0x200004b0

08000b78 <ssd1306_I2C_Write>:
 8000b78:	b580      	push	{r7, lr}
 8000b7a:	b086      	sub	sp, #24
 8000b7c:	af02      	add	r7, sp, #8
 8000b7e:	4603      	mov	r3, r0
 8000b80:	71fb      	strb	r3, [r7, #7]
 8000b82:	460b      	mov	r3, r1
 8000b84:	71bb      	strb	r3, [r7, #6]
 8000b86:	4613      	mov	r3, r2
 8000b88:	717b      	strb	r3, [r7, #5]
 8000b8a:	79bb      	ldrb	r3, [r7, #6]
 8000b8c:	733b      	strb	r3, [r7, #12]
 8000b8e:	797b      	ldrb	r3, [r7, #5]
 8000b90:	737b      	strb	r3, [r7, #13]
 8000b92:	79fb      	ldrb	r3, [r7, #7]
 8000b94:	b299      	uxth	r1, r3
 8000b96:	f107 020c 	add.w	r2, r7, #12
 8000b9a:	230a      	movs	r3, #10
 8000b9c:	9300      	str	r3, [sp, #0]
 8000b9e:	2302      	movs	r3, #2
 8000ba0:	4803      	ldr	r0, [pc, #12]	; (8000bb0 <ssd1306_I2C_Write+0x38>)
 8000ba2:	f001 fc61 	bl	8002468 <HAL_I2C_Master_Transmit>
 8000ba6:	bf00      	nop
 8000ba8:	3710      	adds	r7, #16
 8000baa:	46bd      	mov	sp, r7
 8000bac:	bd80      	pop	{r7, pc}
 8000bae:	bf00      	nop
 8000bb0:	200004b0 	.word	0x200004b0

08000bb4 <HAL_MspInit>:
 8000bb4:	b480      	push	{r7}
 8000bb6:	b085      	sub	sp, #20
 8000bb8:	af00      	add	r7, sp, #0
 8000bba:	4b15      	ldr	r3, [pc, #84]	; (8000c10 <HAL_MspInit+0x5c>)
 8000bbc:	699b      	ldr	r3, [r3, #24]
 8000bbe:	4a14      	ldr	r2, [pc, #80]	; (8000c10 <HAL_MspInit+0x5c>)
 8000bc0:	f043 0301 	orr.w	r3, r3, #1
 8000bc4:	6193      	str	r3, [r2, #24]
 8000bc6:	4b12      	ldr	r3, [pc, #72]	; (8000c10 <HAL_MspInit+0x5c>)
 8000bc8:	699b      	ldr	r3, [r3, #24]
 8000bca:	f003 0301 	and.w	r3, r3, #1
 8000bce:	60bb      	str	r3, [r7, #8]
 8000bd0:	68bb      	ldr	r3, [r7, #8]
 8000bd2:	4b0f      	ldr	r3, [pc, #60]	; (8000c10 <HAL_MspInit+0x5c>)
 8000bd4:	69db      	ldr	r3, [r3, #28]
 8000bd6:	4a0e      	ldr	r2, [pc, #56]	; (8000c10 <HAL_MspInit+0x5c>)
 8000bd8:	f043 5380 	orr.w	r3, r3, #268435456	; 0x10000000
 8000bdc:	61d3      	str	r3, [r2, #28]
 8000bde:	4b0c      	ldr	r3, [pc, #48]	; (8000c10 <HAL_MspInit+0x5c>)
 8000be0:	69db      	ldr	r3, [r3, #28]
 8000be2:	f003 5380 	and.w	r3, r3, #268435456	; 0x10000000
 8000be6:	607b      	str	r3, [r7, #4]
 8000be8:	687b      	ldr	r3, [r7, #4]
 8000bea:	4b0a      	ldr	r3, [pc, #40]	; (8000c14 <HAL_MspInit+0x60>)
 8000bec:	685b      	ldr	r3, [r3, #4]
 8000bee:	60fb      	str	r3, [r7, #12]
 8000bf0:	68fb      	ldr	r3, [r7, #12]
 8000bf2:	f023 63e0 	bic.w	r3, r3, #117440512	; 0x7000000
 8000bf6:	60fb      	str	r3, [r7, #12]
 8000bf8:	68fb      	ldr	r3, [r7, #12]
 8000bfa:	f043 7300 	orr.w	r3, r3, #33554432	; 0x2000000
 8000bfe:	60fb      	str	r3, [r7, #12]
 8000c00:	4a04      	ldr	r2, [pc, #16]	; (8000c14 <HAL_MspInit+0x60>)
 8000c02:	68fb      	ldr	r3, [r7, #12]
 8000c04:	6053      	str	r3, [r2, #4]
 8000c06:	bf00      	nop
 8000c08:	3714      	adds	r7, #20
 8000c0a:	46bd      	mov	sp, r7
 8000c0c:	bc80      	pop	{r7}
 8000c0e:	4770      	bx	lr
 8000c10:	40021000 	.word	0x40021000
 8000c14:	40010000 	.word	0x40010000

08000c18 <HAL_CAN_MspInit>:
 8000c18:	b580      	push	{r7, lr}
 8000c1a:	b088      	sub	sp, #32
 8000c1c:	af00      	add	r7, sp, #0
 8000c1e:	6078      	str	r0, [r7, #4]
 8000c20:	f107 0310 	add.w	r3, r7, #16
 8000c24:	2200      	movs	r2, #0
 8000c26:	601a      	str	r2, [r3, #0]
 8000c28:	605a      	str	r2, [r3, #4]
 8000c2a:	609a      	str	r2, [r3, #8]
 8000c2c:	60da      	str	r2, [r3, #12]
 8000c2e:	687b      	ldr	r3, [r7, #4]
 8000c30:	681b      	ldr	r3, [r3, #0]
 8000c32:	4a20      	ldr	r2, [pc, #128]	; (8000cb4 <HAL_CAN_MspInit+0x9c>)
 8000c34:	4293      	cmp	r3, r2
 8000c36:	d139      	bne.n	8000cac <HAL_CAN_MspInit+0x94>
 8000c38:	4b1f      	ldr	r3, [pc, #124]	; (8000cb8 <HAL_CAN_MspInit+0xa0>)
 8000c3a:	69db      	ldr	r3, [r3, #28]
 8000c3c:	4a1e      	ldr	r2, [pc, #120]	; (8000cb8 <HAL_CAN_MspInit+0xa0>)
 8000c3e:	f043 7300 	orr.w	r3, r3, #33554432	; 0x2000000
 8000c42:	61d3      	str	r3, [r2, #28]
 8000c44:	4b1c      	ldr	r3, [pc, #112]	; (8000cb8 <HAL_CAN_MspInit+0xa0>)
 8000c46:	69db      	ldr	r3, [r3, #28]
 8000c48:	f003 7300 	and.w	r3, r3, #33554432	; 0x2000000
 8000c4c:	60fb      	str	r3, [r7, #12]
 8000c4e:	68fb      	ldr	r3, [r7, #12]
 8000c50:	4b19      	ldr	r3, [pc, #100]	; (8000cb8 <HAL_CAN_MspInit+0xa0>)
 8000c52:	699b      	ldr	r3, [r3, #24]
 8000c54:	4a18      	ldr	r2, [pc, #96]	; (8000cb8 <HAL_CAN_MspInit+0xa0>)
 8000c56:	f043 0304 	orr.w	r3, r3, #4
 8000c5a:	6193      	str	r3, [r2, #24]
 8000c5c:	4b16      	ldr	r3, [pc, #88]	; (8000cb8 <HAL_CAN_MspInit+0xa0>)
 8000c5e:	699b      	ldr	r3, [r3, #24]
 8000c60:	f003 0304 	and.w	r3, r3, #4
 8000c64:	60bb      	str	r3, [r7, #8]
 8000c66:	68bb      	ldr	r3, [r7, #8]
 8000c68:	f44f 6300 	mov.w	r3, #2048	; 0x800
 8000c6c:	613b      	str	r3, [r7, #16]
 8000c6e:	2300      	movs	r3, #0
 8000c70:	617b      	str	r3, [r7, #20]
 8000c72:	2300      	movs	r3, #0
 8000c74:	61bb      	str	r3, [r7, #24]
 8000c76:	f107 0310 	add.w	r3, r7, #16
 8000c7a:	4619      	mov	r1, r3
 8000c7c:	480f      	ldr	r0, [pc, #60]	; (8000cbc <HAL_CAN_MspInit+0xa4>)
 8000c7e:	f001 f8f9 	bl	8001e74 <HAL_GPIO_Init>
 8000c82:	f44f 5380 	mov.w	r3, #4096	; 0x1000
 8000c86:	613b      	str	r3, [r7, #16]
 8000c88:	2302      	movs	r3, #2
 8000c8a:	617b      	str	r3, [r7, #20]
 8000c8c:	2303      	movs	r3, #3
 8000c8e:	61fb      	str	r3, [r7, #28]
 8000c90:	f107 0310 	add.w	r3, r7, #16
 8000c94:	4619      	mov	r1, r3
 8000c96:	4809      	ldr	r0, [pc, #36]	; (8000cbc <HAL_CAN_MspInit+0xa4>)
 8000c98:	f001 f8ec 	bl	8001e74 <HAL_GPIO_Init>
 8000c9c:	2200      	movs	r2, #0
 8000c9e:	2100      	movs	r1, #0
 8000ca0:	2014      	movs	r0, #20
 8000ca2:	f001 f8b0 	bl	8001e06 <HAL_NVIC_SetPriority>
 8000ca6:	2014      	movs	r0, #20
 8000ca8:	f001 f8c9 	bl	8001e3e <HAL_NVIC_EnableIRQ>
 8000cac:	bf00      	nop
 8000cae:	3720      	adds	r7, #32
 8000cb0:	46bd      	mov	sp, r7
 8000cb2:	bd80      	pop	{r7, pc}
 8000cb4:	40006400 	.word	0x40006400
 8000cb8:	40021000 	.word	0x40021000
 8000cbc:	40010800 	.word	0x40010800

08000cc0 <HAL_I2C_MspInit>:
 8000cc0:	b580      	push	{r7, lr}
 8000cc2:	b088      	sub	sp, #32
 8000cc4:	af00      	add	r7, sp, #0
 8000cc6:	6078      	str	r0, [r7, #4]
 8000cc8:	f107 0310 	add.w	r3, r7, #16
 8000ccc:	2200      	movs	r2, #0
 8000cce:	601a      	str	r2, [r3, #0]
 8000cd0:	605a      	str	r2, [r3, #4]
 8000cd2:	609a      	str	r2, [r3, #8]
 8000cd4:	60da      	str	r2, [r3, #12]
 8000cd6:	687b      	ldr	r3, [r7, #4]
 8000cd8:	681b      	ldr	r3, [r3, #0]
 8000cda:	4a15      	ldr	r2, [pc, #84]	; (8000d30 <HAL_I2C_MspInit+0x70>)
 8000cdc:	4293      	cmp	r3, r2
 8000cde:	d123      	bne.n	8000d28 <HAL_I2C_MspInit+0x68>
 8000ce0:	4b14      	ldr	r3, [pc, #80]	; (8000d34 <HAL_I2C_MspInit+0x74>)
 8000ce2:	699b      	ldr	r3, [r3, #24]
 8000ce4:	4a13      	ldr	r2, [pc, #76]	; (8000d34 <HAL_I2C_MspInit+0x74>)
 8000ce6:	f043 0308 	orr.w	r3, r3, #8
 8000cea:	6193      	str	r3, [r2, #24]
 8000cec:	4b11      	ldr	r3, [pc, #68]	; (8000d34 <HAL_I2C_MspInit+0x74>)
 8000cee:	699b      	ldr	r3, [r3, #24]
 8000cf0:	f003 0308 	and.w	r3, r3, #8
 8000cf4:	60fb      	str	r3, [r7, #12]
 8000cf6:	68fb      	ldr	r3, [r7, #12]
 8000cf8:	23c0      	movs	r3, #192	; 0xc0
 8000cfa:	613b      	str	r3, [r7, #16]
 8000cfc:	2312      	movs	r3, #18
 8000cfe:	617b      	str	r3, [r7, #20]
 8000d00:	2303      	movs	r3, #3
 8000d02:	61fb      	str	r3, [r7, #28]
 8000d04:	f107 0310 	add.w	r3, r7, #16
 8000d08:	4619      	mov	r1, r3
 8000d0a:	480b      	ldr	r0, [pc, #44]	; (8000d38 <HAL_I2C_MspInit+0x78>)
 8000d0c:	f001 f8b2 	bl	8001e74 <HAL_GPIO_Init>
 8000d10:	4b08      	ldr	r3, [pc, #32]	; (8000d34 <HAL_I2C_MspInit+0x74>)
 8000d12:	69db      	ldr	r3, [r3, #28]
 8000d14:	4a07      	ldr	r2, [pc, #28]	; (8000d34 <HAL_I2C_MspInit+0x74>)
 8000d16:	f443 1300 	orr.w	r3, r3, #2097152	; 0x200000
 8000d1a:	61d3      	str	r3, [r2, #28]
 8000d1c:	4b05      	ldr	r3, [pc, #20]	; (8000d34 <HAL_I2C_MspInit+0x74>)
 8000d1e:	69db      	ldr	r3, [r3, #28]
 8000d20:	f403 1300 	and.w	r3, r3, #2097152	; 0x200000
 8000d24:	60bb      	str	r3, [r7, #8]
 8000d26:	68bb      	ldr	r3, [r7, #8]
 8000d28:	bf00      	nop
 8000d2a:	3720      	adds	r7, #32
 8000d2c:	46bd      	mov	sp, r7
 8000d2e:	bd80      	pop	{r7, pc}
 8000d30:	40005400 	.word	0x40005400
 8000d34:	40021000 	.word	0x40021000
 8000d38:	40010c00 	.word	0x40010c00

08000d3c <NMI_Handler>:
 8000d3c:	b480      	push	{r7}
 8000d3e:	af00      	add	r7, sp, #0
 8000d40:	e7fe      	b.n	8000d40 <NMI_Handler+0x4>

08000d42 <HardFault_Handler>:
 8000d42:	b480      	push	{r7}
 8000d44:	af00      	add	r7, sp, #0
 8000d46:	e7fe      	b.n	8000d46 <HardFault_Handler+0x4>

08000d48 <MemManage_Handler>:
 8000d48:	b480      	push	{r7}
 8000d4a:	af00      	add	r7, sp, #0
 8000d4c:	e7fe      	b.n	8000d4c <MemManage_Handler+0x4>

08000d4e <BusFault_Handler>:
 8000d4e:	b480      	push	{r7}
 8000d50:	af00      	add	r7, sp, #0
 8000d52:	e7fe      	b.n	8000d52 <BusFault_Handler+0x4>

08000d54 <UsageFault_Handler>:
 8000d54:	b480      	push	{r7}
 8000d56:	af00      	add	r7, sp, #0
 8000d58:	e7fe      	b.n	8000d58 <UsageFault_Handler+0x4>

08000d5a <SVC_Handler>:
 8000d5a:	b480      	push	{r7}
 8000d5c:	af00      	add	r7, sp, #0
 8000d5e:	bf00      	nop
 8000d60:	46bd      	mov	sp, r7
 8000d62:	bc80      	pop	{r7}
 8000d64:	4770      	bx	lr

08000d66 <DebugMon_Handler>:
 8000d66:	b480      	push	{r7}
 8000d68:	af00      	add	r7, sp, #0
 8000d6a:	bf00      	nop
 8000d6c:	46bd      	mov	sp, r7
 8000d6e:	bc80      	pop	{r7}
 8000d70:	4770      	bx	lr

08000d72 <PendSV_Handler>:
 8000d72:	b480      	push	{r7}
 8000d74:	af00      	add	r7, sp, #0
 8000d76:	bf00      	nop
 8000d78:	46bd      	mov	sp, r7
 8000d7a:	bc80      	pop	{r7}
 8000d7c:	4770      	bx	lr

08000d7e <SysTick_Handler>:
 8000d7e:	b580      	push	{r7, lr}
 8000d80:	af00      	add	r7, sp, #0
 8000d82:	f000 f8b5 	bl	8000ef0 <HAL_IncTick>
 8000d86:	bf00      	nop
 8000d88:	bd80      	pop	{r7, pc}
	...

08000d8c <USB_LP_CAN1_RX0_IRQHandler>:
 8000d8c:	b580      	push	{r7, lr}
 8000d8e:	af00      	add	r7, sp, #0
 8000d90:	4802      	ldr	r0, [pc, #8]	; (8000d9c <USB_LP_CAN1_RX0_IRQHandler+0x10>)
 8000d92:	f000 fd3e 	bl	8001812 <HAL_CAN_IRQHandler>
 8000d96:	bf00      	nop
 8000d98:	bd80      	pop	{r7, pc}
 8000d9a:	bf00      	nop
 8000d9c:	20000504 	.word	0x20000504

08000da0 <_sbrk>:
 8000da0:	b580      	push	{r7, lr}
 8000da2:	b086      	sub	sp, #24
 8000da4:	af00      	add	r7, sp, #0
 8000da6:	6078      	str	r0, [r7, #4]
 8000da8:	4a14      	ldr	r2, [pc, #80]	; (8000dfc <_sbrk+0x5c>)
 8000daa:	4b15      	ldr	r3, [pc, #84]	; (8000e00 <_sbrk+0x60>)
 8000dac:	1ad3      	subs	r3, r2, r3
 8000dae:	617b      	str	r3, [r7, #20]
 8000db0:	697b      	ldr	r3, [r7, #20]
 8000db2:	613b      	str	r3, [r7, #16]
 8000db4:	4b13      	ldr	r3, [pc, #76]	; (8000e04 <_sbrk+0x64>)
 8000db6:	681b      	ldr	r3, [r3, #0]
 8000db8:	2b00      	cmp	r3, #0
 8000dba:	d102      	bne.n	8000dc2 <_sbrk+0x22>
 8000dbc:	4b11      	ldr	r3, [pc, #68]	; (8000e04 <_sbrk+0x64>)
 8000dbe:	4a12      	ldr	r2, [pc, #72]	; (8000e08 <_sbrk+0x68>)
 8000dc0:	601a      	str	r2, [r3, #0]
 8000dc2:	4b10      	ldr	r3, [pc, #64]	; (8000e04 <_sbrk+0x64>)
 8000dc4:	681a      	ldr	r2, [r3, #0]
 8000dc6:	687b      	ldr	r3, [r7, #4]
 8000dc8:	4413      	add	r3, r2
 8000dca:	693a      	ldr	r2, [r7, #16]
 8000dcc:	429a      	cmp	r2, r3
 8000dce:	d207      	bcs.n	8000de0 <_sbrk+0x40>
 8000dd0:	f002 fbcc 	bl	800356c <__errno>
 8000dd4:	4603      	mov	r3, r0
 8000dd6:	220c      	movs	r2, #12
 8000dd8:	601a      	str	r2, [r3, #0]
 8000dda:	f04f 33ff 	mov.w	r3, #4294967295	; 0xffffffff
 8000dde:	e009      	b.n	8000df4 <_sbrk+0x54>
 8000de0:	4b08      	ldr	r3, [pc, #32]	; (8000e04 <_sbrk+0x64>)
 8000de2:	681b      	ldr	r3, [r3, #0]
 8000de4:	60fb      	str	r3, [r7, #12]
 8000de6:	4b07      	ldr	r3, [pc, #28]	; (8000e04 <_sbrk+0x64>)
 8000de8:	681a      	ldr	r2, [r3, #0]
 8000dea:	687b      	ldr	r3, [r7, #4]
 8000dec:	4413      	add	r3, r2
 8000dee:	4a05      	ldr	r2, [pc, #20]	; (8000e04 <_sbrk+0x64>)
 8000df0:	6013      	str	r3, [r2, #0]
 8000df2:	68fb      	ldr	r3, [r7, #12]
 8000df4:	4618      	mov	r0, r3
 8000df6:	3718      	adds	r7, #24
 8000df8:	46bd      	mov	sp, r7
 8000dfa:	bd80      	pop	{r7, pc}
 8000dfc:	20005000 	.word	0x20005000
 8000e00:	00000400 	.word	0x00000400
 8000e04:	200004a0 	.word	0x200004a0
 8000e08:	200005b0 	.word	0x200005b0

08000e0c <SystemInit>:
 8000e0c:	b480      	push	{r7}
 8000e0e:	af00      	add	r7, sp, #0
 8000e10:	bf00      	nop
 8000e12:	46bd      	mov	sp, r7
 8000e14:	bc80      	pop	{r7}
 8000e16:	4770      	bx	lr

08000e18 <Reset_Handler>:
 8000e18:	f7ff fff8 	bl	8000e0c <SystemInit>
 8000e1c:	480b      	ldr	r0, [pc, #44]	; (8000e4c <LoopFillZerobss+0xe>)
 8000e1e:	490c      	ldr	r1, [pc, #48]	; (8000e50 <LoopFillZerobss+0x12>)
 8000e20:	4a0c      	ldr	r2, [pc, #48]	; (8000e54 <LoopFillZerobss+0x16>)
 8000e22:	2300      	movs	r3, #0
 8000e24:	e002      	b.n	8000e2c <LoopCopyDataInit>

08000e26 <CopyDataInit>:
 8000e26:	58d4      	ldr	r4, [r2, r3]
 8000e28:	50c4      	str	r4, [r0, r3]
 8000e2a:	3304      	adds	r3, #4

08000e2c <LoopCopyDataInit>:
 8000e2c:	18c4      	adds	r4, r0, r3
 8000e2e:	428c      	cmp	r4, r1
 8000e30:	d3f9      	bcc.n	8000e26 <CopyDataInit>
 8000e32:	4a09      	ldr	r2, [pc, #36]	; (8000e58 <LoopFillZerobss+0x1a>)
 8000e34:	4c09      	ldr	r4, [pc, #36]	; (8000e5c <LoopFillZerobss+0x1e>)
 8000e36:	2300      	movs	r3, #0
 8000e38:	e001      	b.n	8000e3e <LoopFillZerobss>

08000e3a <FillZerobss>:
 8000e3a:	6013      	str	r3, [r2, #0]
 8000e3c:	3204      	adds	r2, #4

08000e3e <LoopFillZerobss>:
 8000e3e:	42a2      	cmp	r2, r4
 8000e40:	d3fb      	bcc.n	8000e3a <FillZerobss>
 8000e42:	f002 fb99 	bl	8003578 <__libc_init_array>
 8000e46:	f7ff f9ad 	bl	80001a4 <main>
 8000e4a:	4770      	bx	lr
 8000e4c:	20000000 	.word	0x20000000
 8000e50:	20000078 	.word	0x20000078
 8000e54:	08005dfc 	.word	0x08005dfc
 8000e58:	20000078 	.word	0x20000078
 8000e5c:	200005ac 	.word	0x200005ac

08000e60 <ADC1_2_IRQHandler>:
 8000e60:	e7fe      	b.n	8000e60 <ADC1_2_IRQHandler>
	...

08000e64 <HAL_Init>:
 8000e64:	b580      	push	{r7, lr}
 8000e66:	af00      	add	r7, sp, #0
 8000e68:	4b08      	ldr	r3, [pc, #32]	; (8000e8c <HAL_Init+0x28>)
 8000e6a:	681b      	ldr	r3, [r3, #0]
 8000e6c:	4a07      	ldr	r2, [pc, #28]	; (8000e8c <HAL_Init+0x28>)
 8000e6e:	f043 0310 	orr.w	r3, r3, #16
 8000e72:	6013      	str	r3, [r2, #0]
 8000e74:	2003      	movs	r0, #3
 8000e76:	f000 ffbb 	bl	8001df0 <HAL_NVIC_SetPriorityGrouping>
 8000e7a:	200f      	movs	r0, #15
 8000e7c:	f000 f808 	bl	8000e90 <HAL_InitTick>
 8000e80:	f7ff fe98 	bl	8000bb4 <HAL_MspInit>
 8000e84:	2300      	movs	r3, #0
 8000e86:	4618      	mov	r0, r3
 8000e88:	bd80      	pop	{r7, pc}
 8000e8a:	bf00      	nop
 8000e8c:	40022000 	.word	0x40022000

08000e90 <HAL_InitTick>:
 8000e90:	b580      	push	{r7, lr}
 8000e92:	b082      	sub	sp, #8
 8000e94:	af00      	add	r7, sp, #0
 8000e96:	6078      	str	r0, [r7, #4]
 8000e98:	4b12      	ldr	r3, [pc, #72]	; (8000ee4 <HAL_InitTick+0x54>)
 8000e9a:	681a      	ldr	r2, [r3, #0]
 8000e9c:	4b12      	ldr	r3, [pc, #72]	; (8000ee8 <HAL_InitTick+0x58>)
 8000e9e:	781b      	ldrb	r3, [r3, #0]
 8000ea0:	4619      	mov	r1, r3
 8000ea2:	f44f 737a 	mov.w	r3, #1000	; 0x3e8
 8000ea6:	fbb3 f3f1 	udiv	r3, r3, r1
 8000eaa:	fbb2 f3f3 	udiv	r3, r2, r3
 8000eae:	4618      	mov	r0, r3
 8000eb0:	f000 ffd3 	bl	8001e5a <HAL_SYSTICK_Config>
 8000eb4:	4603      	mov	r3, r0
 8000eb6:	2b00      	cmp	r3, #0
 8000eb8:	d001      	beq.n	8000ebe <HAL_InitTick+0x2e>
 8000eba:	2301      	movs	r3, #1
 8000ebc:	e00e      	b.n	8000edc <HAL_InitTick+0x4c>
 8000ebe:	687b      	ldr	r3, [r7, #4]
 8000ec0:	2b0f      	cmp	r3, #15
 8000ec2:	d80a      	bhi.n	8000eda <HAL_InitTick+0x4a>
 8000ec4:	2200      	movs	r2, #0
 8000ec6:	6879      	ldr	r1, [r7, #4]
 8000ec8:	f04f 30ff 	mov.w	r0, #4294967295	; 0xffffffff
 8000ecc:	f000 ff9b 	bl	8001e06 <HAL_NVIC_SetPriority>
 8000ed0:	4a06      	ldr	r2, [pc, #24]	; (8000eec <HAL_InitTick+0x5c>)
 8000ed2:	687b      	ldr	r3, [r7, #4]
 8000ed4:	6013      	str	r3, [r2, #0]
 8000ed6:	2300      	movs	r3, #0
 8000ed8:	e000      	b.n	8000edc <HAL_InitTick+0x4c>
 8000eda:	2301      	movs	r3, #1
 8000edc:	4618      	mov	r0, r3
 8000ede:	3708      	adds	r7, #8
 8000ee0:	46bd      	mov	sp, r7
 8000ee2:	bd80      	pop	{r7, pc}
 8000ee4:	20000008 	.word	0x20000008
 8000ee8:	20000010 	.word	0x20000010
 8000eec:	2000000c 	.word	0x2000000c

08000ef0 <HAL_IncTick>:
 8000ef0:	b480      	push	{r7}
 8000ef2:	af00      	add	r7, sp, #0
 8000ef4:	4b05      	ldr	r3, [pc, #20]	; (8000f0c <HAL_IncTick+0x1c>)
 8000ef6:	781b      	ldrb	r3, [r3, #0]
 8000ef8:	461a      	mov	r2, r3
 8000efa:	4b05      	ldr	r3, [pc, #20]	; (8000f10 <HAL_IncTick+0x20>)
 8000efc:	681b      	ldr	r3, [r3, #0]
 8000efe:	4413      	add	r3, r2
 8000f00:	4a03      	ldr	r2, [pc, #12]	; (8000f10 <HAL_IncTick+0x20>)
 8000f02:	6013      	str	r3, [r2, #0]
 8000f04:	bf00      	nop
 8000f06:	46bd      	mov	sp, r7
 8000f08:	bc80      	pop	{r7}
 8000f0a:	4770      	bx	lr
 8000f0c:	20000010 	.word	0x20000010
 8000f10:	200004a4 	.word	0x200004a4

08000f14 <HAL_GetTick>:
 8000f14:	b480      	push	{r7}
 8000f16:	af00      	add	r7, sp, #0
 8000f18:	4b02      	ldr	r3, [pc, #8]	; (8000f24 <HAL_GetTick+0x10>)
 8000f1a:	681b      	ldr	r3, [r3, #0]
 8000f1c:	4618      	mov	r0, r3
 8000f1e:	46bd      	mov	sp, r7
 8000f20:	bc80      	pop	{r7}
 8000f22:	4770      	bx	lr
 8000f24:	200004a4 	.word	0x200004a4

08000f28 <HAL_Delay>:
 8000f28:	b580      	push	{r7, lr}
 8000f2a:	b084      	sub	sp, #16
 8000f2c:	af00      	add	r7, sp, #0
 8000f2e:	6078      	str	r0, [r7, #4]
 8000f30:	f7ff fff0 	bl	8000f14 <HAL_GetTick>
 8000f34:	60b8      	str	r0, [r7, #8]
 8000f36:	687b      	ldr	r3, [r7, #4]
 8000f38:	60fb      	str	r3, [r7, #12]
 8000f3a:	68fb      	ldr	r3, [r7, #12]
 8000f3c:	f1b3 3fff 	cmp.w	r3, #4294967295	; 0xffffffff
 8000f40:	d005      	beq.n	8000f4e <HAL_Delay+0x26>
 8000f42:	4b0a      	ldr	r3, [pc, #40]	; (8000f6c <HAL_Delay+0x44>)
 8000f44:	781b      	ldrb	r3, [r3, #0]
 8000f46:	461a      	mov	r2, r3
 8000f48:	68fb      	ldr	r3, [r7, #12]
 8000f4a:	4413      	add	r3, r2
 8000f4c:	60fb      	str	r3, [r7, #12]
 8000f4e:	bf00      	nop
 8000f50:	f7ff ffe0 	bl	8000f14 <HAL_GetTick>
 8000f54:	4602      	mov	r2, r0
 8000f56:	68bb      	ldr	r3, [r7, #8]
 8000f58:	1ad3      	subs	r3, r2, r3
 8000f5a:	68fa      	ldr	r2, [r7, #12]
 8000f5c:	429a      	cmp	r2, r3
 8000f5e:	d8f7      	bhi.n	8000f50 <HAL_Delay+0x28>
 8000f60:	bf00      	nop
 8000f62:	bf00      	nop
 8000f64:	3710      	adds	r7, #16
 8000f66:	46bd      	mov	sp, r7
 8000f68:	bd80      	pop	{r7, pc}
 8000f6a:	bf00      	nop
 8000f6c:	20000010 	.word	0x20000010

08000f70 <HAL_CAN_Init>:
 8000f70:	b580      	push	{r7, lr}
 8000f72:	b084      	sub	sp, #16
 8000f74:	af00      	add	r7, sp, #0
 8000f76:	6078      	str	r0, [r7, #4]
 8000f78:	687b      	ldr	r3, [r7, #4]
 8000f7a:	2b00      	cmp	r3, #0
 8000f7c:	d101      	bne.n	8000f82 <HAL_CAN_Init+0x12>
 8000f7e:	2301      	movs	r3, #1
 8000f80:	e0ed      	b.n	800115e <HAL_CAN_Init+0x1ee>
 8000f82:	687b      	ldr	r3, [r7, #4]
 8000f84:	f893 3020 	ldrb.w	r3, [r3, #32]
 8000f88:	b2db      	uxtb	r3, r3
 8000f8a:	2b00      	cmp	r3, #0
 8000f8c:	d102      	bne.n	8000f94 <HAL_CAN_Init+0x24>
 8000f8e:	6878      	ldr	r0, [r7, #4]
 8000f90:	f7ff fe42 	bl	8000c18 <HAL_CAN_MspInit>
 8000f94:	687b      	ldr	r3, [r7, #4]
 8000f96:	681b      	ldr	r3, [r3, #0]
 8000f98:	681a      	ldr	r2, [r3, #0]
 8000f9a:	687b      	ldr	r3, [r7, #4]
 8000f9c:	681b      	ldr	r3, [r3, #0]
 8000f9e:	f042 0201 	orr.w	r2, r2, #1
 8000fa2:	601a      	str	r2, [r3, #0]
 8000fa4:	f7ff ffb6 	bl	8000f14 <HAL_GetTick>
 8000fa8:	60f8      	str	r0, [r7, #12]
 8000faa:	e012      	b.n	8000fd2 <HAL_CAN_Init+0x62>
 8000fac:	f7ff ffb2 	bl	8000f14 <HAL_GetTick>
 8000fb0:	4602      	mov	r2, r0
 8000fb2:	68fb      	ldr	r3, [r7, #12]
 8000fb4:	1ad3      	subs	r3, r2, r3
 8000fb6:	2b0a      	cmp	r3, #10
 8000fb8:	d90b      	bls.n	8000fd2 <HAL_CAN_Init+0x62>
 8000fba:	687b      	ldr	r3, [r7, #4]
 8000fbc:	6a5b      	ldr	r3, [r3, #36]	; 0x24
 8000fbe:	f443 3200 	orr.w	r2, r3, #131072	; 0x20000
 8000fc2:	687b      	ldr	r3, [r7, #4]
 8000fc4:	625a      	str	r2, [r3, #36]	; 0x24
 8000fc6:	687b      	ldr	r3, [r7, #4]
 8000fc8:	2205      	movs	r2, #5
 8000fca:	f883 2020 	strb.w	r2, [r3, #32]
 8000fce:	2301      	movs	r3, #1
 8000fd0:	e0c5      	b.n	800115e <HAL_CAN_Init+0x1ee>
 8000fd2:	687b      	ldr	r3, [r7, #4]
 8000fd4:	681b      	ldr	r3, [r3, #0]
 8000fd6:	685b      	ldr	r3, [r3, #4]
 8000fd8:	f003 0301 	and.w	r3, r3, #1
 8000fdc:	2b00      	cmp	r3, #0
 8000fde:	d0e5      	beq.n	8000fac <HAL_CAN_Init+0x3c>
 8000fe0:	687b      	ldr	r3, [r7, #4]
 8000fe2:	681b      	ldr	r3, [r3, #0]
 8000fe4:	681a      	ldr	r2, [r3, #0]
 8000fe6:	687b      	ldr	r3, [r7, #4]
 8000fe8:	681b      	ldr	r3, [r3, #0]
 8000fea:	f022 0202 	bic.w	r2, r2, #2
 8000fee:	601a      	str	r2, [r3, #0]
 8000ff0:	f7ff ff90 	bl	8000f14 <HAL_GetTick>
 8000ff4:	60f8      	str	r0, [r7, #12]
 8000ff6:	e012      	b.n	800101e <HAL_CAN_Init+0xae>
 8000ff8:	f7ff ff8c 	bl	8000f14 <HAL_GetTick>
 8000ffc:	4602      	mov	r2, r0
 8000ffe:	68fb      	ldr	r3, [r7, #12]
 8001000:	1ad3      	subs	r3, r2, r3
 8001002:	2b0a      	cmp	r3, #10
 8001004:	d90b      	bls.n	800101e <HAL_CAN_Init+0xae>
 8001006:	687b      	ldr	r3, [r7, #4]
 8001008:	6a5b      	ldr	r3, [r3, #36]	; 0x24
 800100a:	f443 3200 	orr.w	r2, r3, #131072	; 0x20000
 800100e:	687b      	ldr	r3, [r7, #4]
 8001010:	625a      	str	r2, [r3, #36]	; 0x24
 8001012:	687b      	ldr	r3, [r7, #4]
 8001014:	2205      	movs	r2, #5
 8001016:	f883 2020 	strb.w	r2, [r3, #32]
 800101a:	2301      	movs	r3, #1
 800101c:	e09f      	b.n	800115e <HAL_CAN_Init+0x1ee>
 800101e:	687b      	ldr	r3, [r7, #4]
 8001020:	681b      	ldr	r3, [r3, #0]
 8001022:	685b      	ldr	r3, [r3, #4]
 8001024:	f003 0302 	and.w	r3, r3, #2
 8001028:	2b00      	cmp	r3, #0
 800102a:	d1e5      	bne.n	8000ff8 <HAL_CAN_Init+0x88>
 800102c:	687b      	ldr	r3, [r7, #4]
 800102e:	7e1b      	ldrb	r3, [r3, #24]
 8001030:	2b01      	cmp	r3, #1
 8001032:	d108      	bne.n	8001046 <HAL_CAN_Init+0xd6>
 8001034:	687b      	ldr	r3, [r7, #4]
 8001036:	681b      	ldr	r3, [r3, #0]
 8001038:	681a      	ldr	r2, [r3, #0]
 800103a:	687b      	ldr	r3, [r7, #4]
 800103c:	681b      	ldr	r3, [r3, #0]
 800103e:	f042 0280 	orr.w	r2, r2, #128	; 0x80
 8001042:	601a      	str	r2, [r3, #0]
 8001044:	e007      	b.n	8001056 <HAL_CAN_Init+0xe6>
 8001046:	687b      	ldr	r3, [r7, #4]
 8001048:	681b      	ldr	r3, [r3, #0]
 800104a:	681a      	ldr	r2, [r3, #0]
 800104c:	687b      	ldr	r3, [r7, #4]
 800104e:	681b      	ldr	r3, [r3, #0]
 8001050:	f022 0280 	bic.w	r2, r2, #128	; 0x80
 8001054:	601a      	str	r2, [r3, #0]
 8001056:	687b      	ldr	r3, [r7, #4]
 8001058:	7e5b      	ldrb	r3, [r3, #25]
 800105a:	2b01      	cmp	r3, #1
 800105c:	d108      	bne.n	8001070 <HAL_CAN_Init+0x100>
 800105e:	687b      	ldr	r3, [r7, #4]
 8001060:	681b      	ldr	r3, [r3, #0]
 8001062:	681a      	ldr	r2, [r3, #0]
 8001064:	687b      	ldr	r3, [r7, #4]
 8001066:	681b      	ldr	r3, [r3, #0]
 8001068:	f042 0240 	orr.w	r2, r2, #64	; 0x40
 800106c:	601a      	str	r2, [r3, #0]
 800106e:	e007      	b.n	8001080 <HAL_CAN_Init+0x110>
 8001070:	687b      	ldr	r3, [r7, #4]
 8001072:	681b      	ldr	r3, [r3, #0]
 8001074:	681a      	ldr	r2, [r3, #0]
 8001076:	687b      	ldr	r3, [r7, #4]
 8001078:	681b      	ldr	r3, [r3, #0]
 800107a:	f022 0240 	bic.w	r2, r2, #64	; 0x40
 800107e:	601a      	str	r2, [r3, #0]
 8001080:	687b      	ldr	r3, [r7, #4]
 8001082:	7e9b      	ldrb	r3, [r3, #26]
 8001084:	2b01      	cmp	r3, #1
 8001086:	d108      	bne.n	800109a <HAL_CAN_Init+0x12a>
 8001088:	687b      	ldr	r3, [r7, #4]
 800108a:	681b      	ldr	r3, [r3, #0]
 800108c:	681a      	ldr	r2, [r3, #0]
 800108e:	687b      	ldr	r3, [r7, #4]
 8001090:	681b      	ldr	r3, [r3, #0]
 8001092:	f042 0220 	orr.w	r2, r2, #32
 8001096:	601a      	str	r2, [r3, #0]
 8001098:	e007      	b.n	80010aa <HAL_CAN_Init+0x13a>
 800109a:	687b      	ldr	r3, [r7, #4]
 800109c:	681b      	ldr	r3, [r3, #0]
 800109e:	681a      	ldr	r2, [r3, #0]
 80010a0:	687b      	ldr	r3, [r7, #4]
 80010a2:	681b      	ldr	r3, [r3, #0]
 80010a4:	f022 0220 	bic.w	r2, r2, #32
 80010a8:	601a      	str	r2, [r3, #0]
 80010aa:	687b      	ldr	r3, [r7, #4]
 80010ac:	7edb      	ldrb	r3, [r3, #27]
 80010ae:	2b01      	cmp	r3, #1
 80010b0:	d108      	bne.n	80010c4 <HAL_CAN_Init+0x154>
 80010b2:	687b      	ldr	r3, [r7, #4]
 80010b4:	681b      	ldr	r3, [r3, #0]
 80010b6:	681a      	ldr	r2, [r3, #0]
 80010b8:	687b      	ldr	r3, [r7, #4]
 80010ba:	681b      	ldr	r3, [r3, #0]
 80010bc:	f022 0210 	bic.w	r2, r2, #16
 80010c0:	601a      	str	r2, [r3, #0]
 80010c2:	e007      	b.n	80010d4 <HAL_CAN_Init+0x164>
 80010c4:	687b      	ldr	r3, [r7, #4]
 80010c6:	681b      	ldr	r3, [r3, #0]
 80010c8:	681a      	ldr	r2, [r3, #0]
 80010ca:	687b      	ldr	r3, [r7, #4]
 80010cc:	681b      	ldr	r3, [r3, #0]
 80010ce:	f042 0210 	orr.w	r2, r2, #16
 80010d2:	601a      	str	r2, [r3, #0]
 80010d4:	687b      	ldr	r3, [r7, #4]
 80010d6:	7f1b      	ldrb	r3, [r3, #28]
 80010d8:	2b01      	cmp	r3, #1
 80010da:	d108      	bne.n	80010ee <HAL_CAN_Init+0x17e>
 80010dc:	687b      	ldr	r3, [r7, #4]
 80010de:	681b      	ldr	r3, [r3, #0]
 80010e0:	681a      	ldr	r2, [r3, #0]
 80010e2:	687b      	ldr	r3, [r7, #4]
 80010e4:	681b      	ldr	r3, [r3, #0]
 80010e6:	f042 0208 	orr.w	r2, r2, #8
 80010ea:	601a      	str	r2, [r3, #0]
 80010ec:	e007      	b.n	80010fe <HAL_CAN_Init+0x18e>
 80010ee:	687b      	ldr	r3, [r7, #4]
 80010f0:	681b      	ldr	r3, [r3, #0]
 80010f2:	681a      	ldr	r2, [r3, #0]
 80010f4:	687b      	ldr	r3, [r7, #4]
 80010f6:	681b      	ldr	r3, [r3, #0]
 80010f8:	f022 0208 	bic.w	r2, r2, #8
 80010fc:	601a      	str	r2, [r3, #0]
 80010fe:	687b      	ldr	r3, [r7, #4]
 8001100:	7f5b      	ldrb	r3, [r3, #29]
 8001102:	2b01      	cmp	r3, #1
 8001104:	d108      	bne.n	8001118 <HAL_CAN_Init+0x1a8>
 8001106:	687b      	ldr	r3, [r7, #4]
 8001108:	681b      	ldr	r3, [r3, #0]
 800110a:	681a      	ldr	r2, [r3, #0]
 800110c:	687b      	ldr	r3, [r7, #4]
 800110e:	681b      	ldr	r3, [r3, #0]
 8001110:	f042 0204 	orr.w	r2, r2, #4
 8001114:	601a      	str	r2, [r3, #0]
 8001116:	e007      	b.n	8001128 <HAL_CAN_Init+0x1b8>
 8001118:	687b      	ldr	r3, [r7, #4]
 800111a:	681b      	ldr	r3, [r3, #0]
 800111c:	681a      	ldr	r2, [r3, #0]
 800111e:	687b      	ldr	r3, [r7, #4]
 8001120:	681b      	ldr	r3, [r3, #0]
 8001122:	f022 0204 	bic.w	r2, r2, #4
 8001126:	601a      	str	r2, [r3, #0]
 8001128:	687b      	ldr	r3, [r7, #4]
 800112a:	689a      	ldr	r2, [r3, #8]
 800112c:	687b      	ldr	r3, [r7, #4]
 800112e:	68db      	ldr	r3, [r3, #12]
 8001130:	431a      	orrs	r2, r3
 8001132:	687b      	ldr	r3, [r7, #4]
 8001134:	691b      	ldr	r3, [r3, #16]
 8001136:	431a      	orrs	r2, r3
 8001138:	687b      	ldr	r3, [r7, #4]
 800113a:	695b      	ldr	r3, [r3, #20]
 800113c:	ea42 0103 	orr.w	r1, r2, r3
 8001140:	687b      	ldr	r3, [r7, #4]
 8001142:	685b      	ldr	r3, [r3, #4]
 8001144:	1e5a      	subs	r2, r3, #1
 8001146:	687b      	ldr	r3, [r7, #4]
 8001148:	681b      	ldr	r3, [r3, #0]
 800114a:	430a      	orrs	r2, r1
 800114c:	61da      	str	r2, [r3, #28]
 800114e:	687b      	ldr	r3, [r7, #4]
 8001150:	2200      	movs	r2, #0
 8001152:	625a      	str	r2, [r3, #36]	; 0x24
 8001154:	687b      	ldr	r3, [r7, #4]
 8001156:	2201      	movs	r2, #1
 8001158:	f883 2020 	strb.w	r2, [r3, #32]
 800115c:	2300      	movs	r3, #0
 800115e:	4618      	mov	r0, r3
 8001160:	3710      	adds	r7, #16
 8001162:	46bd      	mov	sp, r7
 8001164:	bd80      	pop	{r7, pc}

08001166 <HAL_CAN_ConfigFilter>:
 8001166:	b480      	push	{r7}
 8001168:	b087      	sub	sp, #28
 800116a:	af00      	add	r7, sp, #0
 800116c:	6078      	str	r0, [r7, #4]
 800116e:	6039      	str	r1, [r7, #0]
 8001170:	687b      	ldr	r3, [r7, #4]
 8001172:	681b      	ldr	r3, [r3, #0]
 8001174:	617b      	str	r3, [r7, #20]
 8001176:	687b      	ldr	r3, [r7, #4]
 8001178:	f893 3020 	ldrb.w	r3, [r3, #32]
 800117c:	74fb      	strb	r3, [r7, #19]
 800117e:	7cfb      	ldrb	r3, [r7, #19]
 8001180:	2b01      	cmp	r3, #1
 8001182:	d003      	beq.n	800118c <HAL_CAN_ConfigFilter+0x26>
 8001184:	7cfb      	ldrb	r3, [r7, #19]
 8001186:	2b02      	cmp	r3, #2
 8001188:	f040 80aa 	bne.w	80012e0 <HAL_CAN_ConfigFilter+0x17a>
 800118c:	697b      	ldr	r3, [r7, #20]
 800118e:	f8d3 3200 	ldr.w	r3, [r3, #512]	; 0x200
 8001192:	f043 0201 	orr.w	r2, r3, #1
 8001196:	697b      	ldr	r3, [r7, #20]
 8001198:	f8c3 2200 	str.w	r2, [r3, #512]	; 0x200
 800119c:	683b      	ldr	r3, [r7, #0]
 800119e:	695b      	ldr	r3, [r3, #20]
 80011a0:	f003 031f 	and.w	r3, r3, #31
 80011a4:	2201      	movs	r2, #1
 80011a6:	fa02 f303 	lsl.w	r3, r2, r3
 80011aa:	60fb      	str	r3, [r7, #12]
 80011ac:	697b      	ldr	r3, [r7, #20]
 80011ae:	f8d3 221c 	ldr.w	r2, [r3, #540]	; 0x21c
 80011b2:	68fb      	ldr	r3, [r7, #12]
 80011b4:	43db      	mvns	r3, r3
 80011b6:	401a      	ands	r2, r3
 80011b8:	697b      	ldr	r3, [r7, #20]
 80011ba:	f8c3 221c 	str.w	r2, [r3, #540]	; 0x21c
 80011be:	683b      	ldr	r3, [r7, #0]
 80011c0:	69db      	ldr	r3, [r3, #28]
 80011c2:	2b00      	cmp	r3, #0
 80011c4:	d123      	bne.n	800120e <HAL_CAN_ConfigFilter+0xa8>
 80011c6:	697b      	ldr	r3, [r7, #20]
 80011c8:	f8d3 220c 	ldr.w	r2, [r3, #524]	; 0x20c
 80011cc:	68fb      	ldr	r3, [r7, #12]
 80011ce:	43db      	mvns	r3, r3
 80011d0:	401a      	ands	r2, r3
 80011d2:	697b      	ldr	r3, [r7, #20]
 80011d4:	f8c3 220c 	str.w	r2, [r3, #524]	; 0x20c
 80011d8:	683b      	ldr	r3, [r7, #0]
 80011da:	68db      	ldr	r3, [r3, #12]
 80011dc:	0419      	lsls	r1, r3, #16
 80011de:	683b      	ldr	r3, [r7, #0]
 80011e0:	685b      	ldr	r3, [r3, #4]
 80011e2:	b29b      	uxth	r3, r3
 80011e4:	683a      	ldr	r2, [r7, #0]
 80011e6:	6952      	ldr	r2, [r2, #20]
 80011e8:	4319      	orrs	r1, r3
 80011ea:	697b      	ldr	r3, [r7, #20]
 80011ec:	3248      	adds	r2, #72	; 0x48
 80011ee:	f843 1032 	str.w	r1, [r3, r2, lsl #3]
 80011f2:	683b      	ldr	r3, [r7, #0]
 80011f4:	689b      	ldr	r3, [r3, #8]
 80011f6:	0419      	lsls	r1, r3, #16
 80011f8:	683b      	ldr	r3, [r7, #0]
 80011fa:	681b      	ldr	r3, [r3, #0]
 80011fc:	b29a      	uxth	r2, r3
 80011fe:	683b      	ldr	r3, [r7, #0]
 8001200:	695b      	ldr	r3, [r3, #20]
 8001202:	430a      	orrs	r2, r1
 8001204:	6979      	ldr	r1, [r7, #20]
 8001206:	3348      	adds	r3, #72	; 0x48
 8001208:	00db      	lsls	r3, r3, #3
 800120a:	440b      	add	r3, r1
 800120c:	605a      	str	r2, [r3, #4]
 800120e:	683b      	ldr	r3, [r7, #0]
 8001210:	69db      	ldr	r3, [r3, #28]
 8001212:	2b01      	cmp	r3, #1
 8001214:	d122      	bne.n	800125c <HAL_CAN_ConfigFilter+0xf6>
 8001216:	697b      	ldr	r3, [r7, #20]
 8001218:	f8d3 220c 	ldr.w	r2, [r3, #524]	; 0x20c
 800121c:	68fb      	ldr	r3, [r7, #12]
 800121e:	431a      	orrs	r2, r3
 8001220:	697b      	ldr	r3, [r7, #20]
 8001222:	f8c3 220c 	str.w	r2, [r3, #524]	; 0x20c
 8001226:	683b      	ldr	r3, [r7, #0]
 8001228:	681b      	ldr	r3, [r3, #0]
 800122a:	0419      	lsls	r1, r3, #16
 800122c:	683b      	ldr	r3, [r7, #0]
 800122e:	685b      	ldr	r3, [r3, #4]
 8001230:	b29b      	uxth	r3, r3
 8001232:	683a      	ldr	r2, [r7, #0]
 8001234:	6952      	ldr	r2, [r2, #20]
 8001236:	4319      	orrs	r1, r3
 8001238:	697b      	ldr	r3, [r7, #20]
 800123a:	3248      	adds	r2, #72	; 0x48
 800123c:	f843 1032 	str.w	r1, [r3, r2, lsl #3]
 8001240:	683b      	ldr	r3, [r7, #0]
 8001242:	689b      	ldr	r3, [r3, #8]
 8001244:	0419      	lsls	r1, r3, #16
 8001246:	683b      	ldr	r3, [r7, #0]
 8001248:	68db      	ldr	r3, [r3, #12]
 800124a:	b29a      	uxth	r2, r3
 800124c:	683b      	ldr	r3, [r7, #0]
 800124e:	695b      	ldr	r3, [r3, #20]
 8001250:	430a      	orrs	r2, r1
 8001252:	6979      	ldr	r1, [r7, #20]
 8001254:	3348      	adds	r3, #72	; 0x48
 8001256:	00db      	lsls	r3, r3, #3
 8001258:	440b      	add	r3, r1
 800125a:	605a      	str	r2, [r3, #4]
 800125c:	683b      	ldr	r3, [r7, #0]
 800125e:	699b      	ldr	r3, [r3, #24]
 8001260:	2b00      	cmp	r3, #0
 8001262:	d109      	bne.n	8001278 <HAL_CAN_ConfigFilter+0x112>
 8001264:	697b      	ldr	r3, [r7, #20]
 8001266:	f8d3 2204 	ldr.w	r2, [r3, #516]	; 0x204
 800126a:	68fb      	ldr	r3, [r7, #12]
 800126c:	43db      	mvns	r3, r3
 800126e:	401a      	ands	r2, r3
 8001270:	697b      	ldr	r3, [r7, #20]
 8001272:	f8c3 2204 	str.w	r2, [r3, #516]	; 0x204
 8001276:	e007      	b.n	8001288 <HAL_CAN_ConfigFilter+0x122>
 8001278:	697b      	ldr	r3, [r7, #20]
 800127a:	f8d3 2204 	ldr.w	r2, [r3, #516]	; 0x204
 800127e:	68fb      	ldr	r3, [r7, #12]
 8001280:	431a      	orrs	r2, r3
 8001282:	697b      	ldr	r3, [r7, #20]
 8001284:	f8c3 2204 	str.w	r2, [r3, #516]	; 0x204
 8001288:	683b      	ldr	r3, [r7, #0]
 800128a:	691b      	ldr	r3, [r3, #16]
 800128c:	2b00      	cmp	r3, #0
 800128e:	d109      	bne.n	80012a4 <HAL_CAN_ConfigFilter+0x13e>
 8001290:	697b      	ldr	r3, [r7, #20]
 8001292:	f8d3 2214 	ldr.w	r2, [r3, #532]	; 0x214
 8001296:	68fb      	ldr	r3, [r7, #12]
 8001298:	43db      	mvns	r3, r3
 800129a:	401a      	ands	r2, r3
 800129c:	697b      	ldr	r3, [r7, #20]
 800129e:	f8c3 2214 	str.w	r2, [r3, #532]	; 0x214
 80012a2:	e007      	b.n	80012b4 <HAL_CAN_ConfigFilter+0x14e>
 80012a4:	697b      	ldr	r3, [r7, #20]
 80012a6:	f8d3 2214 	ldr.w	r2, [r3, #532]	; 0x214
 80012aa:	68fb      	ldr	r3, [r7, #12]
 80012ac:	431a      	orrs	r2, r3
 80012ae:	697b      	ldr	r3, [r7, #20]
 80012b0:	f8c3 2214 	str.w	r2, [r3, #532]	; 0x214
 80012b4:	683b      	ldr	r3, [r7, #0]
 80012b6:	6a1b      	ldr	r3, [r3, #32]
 80012b8:	2b01      	cmp	r3, #1
 80012ba:	d107      	bne.n	80012cc <HAL_CAN_ConfigFilter+0x166>
 80012bc:	697b      	ldr	r3, [r7, #20]
 80012be:	f8d3 221c 	ldr.w	r2, [r3, #540]	; 0x21c
 80012c2:	68fb      	ldr	r3, [r7, #12]
 80012c4:	431a      	orrs	r2, r3
 80012c6:	697b      	ldr	r3, [r7, #20]
 80012c8:	f8c3 221c 	str.w	r2, [r3, #540]	; 0x21c
 80012cc:	697b      	ldr	r3, [r7, #20]
 80012ce:	f8d3 3200 	ldr.w	r3, [r3, #512]	; 0x200
 80012d2:	f023 0201 	bic.w	r2, r3, #1
 80012d6:	697b      	ldr	r3, [r7, #20]
 80012d8:	f8c3 2200 	str.w	r2, [r3, #512]	; 0x200
 80012dc:	2300      	movs	r3, #0
 80012de:	e006      	b.n	80012ee <HAL_CAN_ConfigFilter+0x188>
 80012e0:	687b      	ldr	r3, [r7, #4]
 80012e2:	6a5b      	ldr	r3, [r3, #36]	; 0x24
 80012e4:	f443 2280 	orr.w	r2, r3, #262144	; 0x40000
 80012e8:	687b      	ldr	r3, [r7, #4]
 80012ea:	625a      	str	r2, [r3, #36]	; 0x24
 80012ec:	2301      	movs	r3, #1
 80012ee:	4618      	mov	r0, r3
 80012f0:	371c      	adds	r7, #28
 80012f2:	46bd      	mov	sp, r7
 80012f4:	bc80      	pop	{r7}
 80012f6:	4770      	bx	lr

080012f8 <HAL_CAN_Start>:
 80012f8:	b580      	push	{r7, lr}
 80012fa:	b084      	sub	sp, #16
 80012fc:	af00      	add	r7, sp, #0
 80012fe:	6078      	str	r0, [r7, #4]
 8001300:	687b      	ldr	r3, [r7, #4]
 8001302:	f893 3020 	ldrb.w	r3, [r3, #32]
 8001306:	b2db      	uxtb	r3, r3
 8001308:	2b01      	cmp	r3, #1
 800130a:	d12e      	bne.n	800136a <HAL_CAN_Start+0x72>
 800130c:	687b      	ldr	r3, [r7, #4]
 800130e:	2202      	movs	r2, #2
 8001310:	f883 2020 	strb.w	r2, [r3, #32]
 8001314:	687b      	ldr	r3, [r7, #4]
 8001316:	681b      	ldr	r3, [r3, #0]
 8001318:	681a      	ldr	r2, [r3, #0]
 800131a:	687b      	ldr	r3, [r7, #4]
 800131c:	681b      	ldr	r3, [r3, #0]
 800131e:	f022 0201 	bic.w	r2, r2, #1
 8001322:	601a      	str	r2, [r3, #0]
 8001324:	f7ff fdf6 	bl	8000f14 <HAL_GetTick>
 8001328:	60f8      	str	r0, [r7, #12]
 800132a:	e012      	b.n	8001352 <HAL_CAN_Start+0x5a>
 800132c:	f7ff fdf2 	bl	8000f14 <HAL_GetTick>
 8001330:	4602      	mov	r2, r0
 8001332:	68fb      	ldr	r3, [r7, #12]
 8001334:	1ad3      	subs	r3, r2, r3
 8001336:	2b0a      	cmp	r3, #10
 8001338:	d90b      	bls.n	8001352 <HAL_CAN_Start+0x5a>
 800133a:	687b      	ldr	r3, [r7, #4]
 800133c:	6a5b      	ldr	r3, [r3, #36]	; 0x24
 800133e:	f443 3200 	orr.w	r2, r3, #131072	; 0x20000
 8001342:	687b      	ldr	r3, [r7, #4]
 8001344:	625a      	str	r2, [r3, #36]	; 0x24
 8001346:	687b      	ldr	r3, [r7, #4]
 8001348:	2205      	movs	r2, #5
 800134a:	f883 2020 	strb.w	r2, [r3, #32]
 800134e:	2301      	movs	r3, #1
 8001350:	e012      	b.n	8001378 <HAL_CAN_Start+0x80>
 8001352:	687b      	ldr	r3, [r7, #4]
 8001354:	681b      	ldr	r3, [r3, #0]
 8001356:	685b      	ldr	r3, [r3, #4]
 8001358:	f003 0301 	and.w	r3, r3, #1
 800135c:	2b00      	cmp	r3, #0
 800135e:	d1e5      	bne.n	800132c <HAL_CAN_Start+0x34>
 8001360:	687b      	ldr	r3, [r7, #4]
 8001362:	2200      	movs	r2, #0
 8001364:	625a      	str	r2, [r3, #36]	; 0x24
 8001366:	2300      	movs	r3, #0
 8001368:	e006      	b.n	8001378 <HAL_CAN_Start+0x80>
 800136a:	687b      	ldr	r3, [r7, #4]
 800136c:	6a5b      	ldr	r3, [r3, #36]	; 0x24
 800136e:	f443 2200 	orr.w	r2, r3, #524288	; 0x80000
 8001372:	687b      	ldr	r3, [r7, #4]
 8001374:	625a      	str	r2, [r3, #36]	; 0x24
 8001376:	2301      	movs	r3, #1
 8001378:	4618      	mov	r0, r3
 800137a:	3710      	adds	r7, #16
 800137c:	46bd      	mov	sp, r7
 800137e:	bd80      	pop	{r7, pc}

08001380 <HAL_CAN_AddTxMessage>:
 8001380:	b480      	push	{r7}
 8001382:	b089      	sub	sp, #36	; 0x24
 8001384:	af00      	add	r7, sp, #0
 8001386:	60f8      	str	r0, [r7, #12]
 8001388:	60b9      	str	r1, [r7, #8]
 800138a:	607a      	str	r2, [r7, #4]
 800138c:	603b      	str	r3, [r7, #0]
 800138e:	68fb      	ldr	r3, [r7, #12]
 8001390:	f893 3020 	ldrb.w	r3, [r3, #32]
 8001394:	77fb      	strb	r3, [r7, #31]
 8001396:	68fb      	ldr	r3, [r7, #12]
 8001398:	681b      	ldr	r3, [r3, #0]
 800139a:	689b      	ldr	r3, [r3, #8]
 800139c:	61bb      	str	r3, [r7, #24]
 800139e:	7ffb      	ldrb	r3, [r7, #31]
 80013a0:	2b01      	cmp	r3, #1
 80013a2:	d003      	beq.n	80013ac <HAL_CAN_AddTxMessage+0x2c>
 80013a4:	7ffb      	ldrb	r3, [r7, #31]
 80013a6:	2b02      	cmp	r3, #2
 80013a8:	f040 80ad 	bne.w	8001506 <HAL_CAN_AddTxMessage+0x186>
 80013ac:	69bb      	ldr	r3, [r7, #24]
 80013ae:	f003 6380 	and.w	r3, r3, #67108864	; 0x4000000
 80013b2:	2b00      	cmp	r3, #0
 80013b4:	d10a      	bne.n	80013cc <HAL_CAN_AddTxMessage+0x4c>
 80013b6:	69bb      	ldr	r3, [r7, #24]
 80013b8:	f003 6300 	and.w	r3, r3, #134217728	; 0x8000000
 80013bc:	2b00      	cmp	r3, #0
 80013be:	d105      	bne.n	80013cc <HAL_CAN_AddTxMessage+0x4c>
 80013c0:	69bb      	ldr	r3, [r7, #24]
 80013c2:	f003 5380 	and.w	r3, r3, #268435456	; 0x10000000
 80013c6:	2b00      	cmp	r3, #0
 80013c8:	f000 8095 	beq.w	80014f6 <HAL_CAN_AddTxMessage+0x176>
 80013cc:	69bb      	ldr	r3, [r7, #24]
 80013ce:	0e1b      	lsrs	r3, r3, #24
 80013d0:	f003 0303 	and.w	r3, r3, #3
 80013d4:	617b      	str	r3, [r7, #20]
 80013d6:	2201      	movs	r2, #1
 80013d8:	697b      	ldr	r3, [r7, #20]
 80013da:	409a      	lsls	r2, r3
 80013dc:	683b      	ldr	r3, [r7, #0]
 80013de:	601a      	str	r2, [r3, #0]
 80013e0:	68bb      	ldr	r3, [r7, #8]
 80013e2:	689b      	ldr	r3, [r3, #8]
 80013e4:	2b00      	cmp	r3, #0
 80013e6:	d10d      	bne.n	8001404 <HAL_CAN_AddTxMessage+0x84>
 80013e8:	68bb      	ldr	r3, [r7, #8]
 80013ea:	681b      	ldr	r3, [r3, #0]
 80013ec:	055a      	lsls	r2, r3, #21
 80013ee:	68bb      	ldr	r3, [r7, #8]
 80013f0:	68db      	ldr	r3, [r3, #12]
 80013f2:	68f9      	ldr	r1, [r7, #12]
 80013f4:	6809      	ldr	r1, [r1, #0]
 80013f6:	431a      	orrs	r2, r3
 80013f8:	697b      	ldr	r3, [r7, #20]
 80013fa:	3318      	adds	r3, #24
 80013fc:	011b      	lsls	r3, r3, #4
 80013fe:	440b      	add	r3, r1
 8001400:	601a      	str	r2, [r3, #0]
 8001402:	e00f      	b.n	8001424 <HAL_CAN_AddTxMessage+0xa4>
 8001404:	68bb      	ldr	r3, [r7, #8]
 8001406:	685b      	ldr	r3, [r3, #4]
 8001408:	00da      	lsls	r2, r3, #3
 800140a:	68bb      	ldr	r3, [r7, #8]
 800140c:	689b      	ldr	r3, [r3, #8]
 800140e:	431a      	orrs	r2, r3
 8001410:	68bb      	ldr	r3, [r7, #8]
 8001412:	68db      	ldr	r3, [r3, #12]
 8001414:	68f9      	ldr	r1, [r7, #12]
 8001416:	6809      	ldr	r1, [r1, #0]
 8001418:	431a      	orrs	r2, r3
 800141a:	697b      	ldr	r3, [r7, #20]
 800141c:	3318      	adds	r3, #24
 800141e:	011b      	lsls	r3, r3, #4
 8001420:	440b      	add	r3, r1
 8001422:	601a      	str	r2, [r3, #0]
 8001424:	68fb      	ldr	r3, [r7, #12]
 8001426:	6819      	ldr	r1, [r3, #0]
 8001428:	68bb      	ldr	r3, [r7, #8]
 800142a:	691a      	ldr	r2, [r3, #16]
 800142c:	697b      	ldr	r3, [r7, #20]
 800142e:	3318      	adds	r3, #24
 8001430:	011b      	lsls	r3, r3, #4
 8001432:	440b      	add	r3, r1
 8001434:	3304      	adds	r3, #4
 8001436:	601a      	str	r2, [r3, #0]
 8001438:	68bb      	ldr	r3, [r7, #8]
 800143a:	7d1b      	ldrb	r3, [r3, #20]
 800143c:	2b01      	cmp	r3, #1
 800143e:	d111      	bne.n	8001464 <HAL_CAN_AddTxMessage+0xe4>
 8001440:	68fb      	ldr	r3, [r7, #12]
 8001442:	681a      	ldr	r2, [r3, #0]
 8001444:	697b      	ldr	r3, [r7, #20]
 8001446:	3318      	adds	r3, #24
 8001448:	011b      	lsls	r3, r3, #4
 800144a:	4413      	add	r3, r2
 800144c:	3304      	adds	r3, #4
 800144e:	681b      	ldr	r3, [r3, #0]
 8001450:	68fa      	ldr	r2, [r7, #12]
 8001452:	6811      	ldr	r1, [r2, #0]
 8001454:	f443 7280 	orr.w	r2, r3, #256	; 0x100
 8001458:	697b      	ldr	r3, [r7, #20]
 800145a:	3318      	adds	r3, #24
 800145c:	011b      	lsls	r3, r3, #4
 800145e:	440b      	add	r3, r1
 8001460:	3304      	adds	r3, #4
 8001462:	601a      	str	r2, [r3, #0]
 8001464:	687b      	ldr	r3, [r7, #4]
 8001466:	3307      	adds	r3, #7
 8001468:	781b      	ldrb	r3, [r3, #0]
 800146a:	061a      	lsls	r2, r3, #24
 800146c:	687b      	ldr	r3, [r7, #4]
 800146e:	3306      	adds	r3, #6
 8001470:	781b      	ldrb	r3, [r3, #0]
 8001472:	041b      	lsls	r3, r3, #16
 8001474:	431a      	orrs	r2, r3
 8001476:	687b      	ldr	r3, [r7, #4]
 8001478:	3305      	adds	r3, #5
 800147a:	781b      	ldrb	r3, [r3, #0]
 800147c:	021b      	lsls	r3, r3, #8
 800147e:	4313      	orrs	r3, r2
 8001480:	687a      	ldr	r2, [r7, #4]
 8001482:	3204      	adds	r2, #4
 8001484:	7812      	ldrb	r2, [r2, #0]
 8001486:	4610      	mov	r0, r2
 8001488:	68fa      	ldr	r2, [r7, #12]
 800148a:	6811      	ldr	r1, [r2, #0]
 800148c:	ea43 0200 	orr.w	r2, r3, r0
 8001490:	697b      	ldr	r3, [r7, #20]
 8001492:	011b      	lsls	r3, r3, #4
 8001494:	440b      	add	r3, r1
 8001496:	f503 73c6 	add.w	r3, r3, #396	; 0x18c
 800149a:	601a      	str	r2, [r3, #0]
 800149c:	687b      	ldr	r3, [r7, #4]
 800149e:	3303      	adds	r3, #3
 80014a0:	781b      	ldrb	r3, [r3, #0]
 80014a2:	061a      	lsls	r2, r3, #24
 80014a4:	687b      	ldr	r3, [r7, #4]
 80014a6:	3302      	adds	r3, #2
 80014a8:	781b      	ldrb	r3, [r3, #0]
 80014aa:	041b      	lsls	r3, r3, #16
 80014ac:	431a      	orrs	r2, r3
 80014ae:	687b      	ldr	r3, [r7, #4]
 80014b0:	3301      	adds	r3, #1
 80014b2:	781b      	ldrb	r3, [r3, #0]
 80014b4:	021b      	lsls	r3, r3, #8
 80014b6:	4313      	orrs	r3, r2
 80014b8:	687a      	ldr	r2, [r7, #4]
 80014ba:	7812      	ldrb	r2, [r2, #0]
 80014bc:	4610      	mov	r0, r2
 80014be:	68fa      	ldr	r2, [r7, #12]
 80014c0:	6811      	ldr	r1, [r2, #0]
 80014c2:	ea43 0200 	orr.w	r2, r3, r0
 80014c6:	697b      	ldr	r3, [r7, #20]
 80014c8:	011b      	lsls	r3, r3, #4
 80014ca:	440b      	add	r3, r1
 80014cc:	f503 73c4 	add.w	r3, r3, #392	; 0x188
 80014d0:	601a      	str	r2, [r3, #0]
 80014d2:	68fb      	ldr	r3, [r7, #12]
 80014d4:	681a      	ldr	r2, [r3, #0]
 80014d6:	697b      	ldr	r3, [r7, #20]
 80014d8:	3318      	adds	r3, #24
 80014da:	011b      	lsls	r3, r3, #4
 80014dc:	4413      	add	r3, r2
 80014de:	681b      	ldr	r3, [r3, #0]
 80014e0:	68fa      	ldr	r2, [r7, #12]
 80014e2:	6811      	ldr	r1, [r2, #0]
 80014e4:	f043 0201 	orr.w	r2, r3, #1
 80014e8:	697b      	ldr	r3, [r7, #20]
 80014ea:	3318      	adds	r3, #24
 80014ec:	011b      	lsls	r3, r3, #4
 80014ee:	440b      	add	r3, r1
 80014f0:	601a      	str	r2, [r3, #0]
 80014f2:	2300      	movs	r3, #0
 80014f4:	e00e      	b.n	8001514 <HAL_CAN_AddTxMessage+0x194>
 80014f6:	68fb      	ldr	r3, [r7, #12]
 80014f8:	6a5b      	ldr	r3, [r3, #36]	; 0x24
 80014fa:	f443 1200 	orr.w	r2, r3, #2097152	; 0x200000
 80014fe:	68fb      	ldr	r3, [r7, #12]
 8001500:	625a      	str	r2, [r3, #36]	; 0x24
 8001502:	2301      	movs	r3, #1
 8001504:	e006      	b.n	8001514 <HAL_CAN_AddTxMessage+0x194>
 8001506:	68fb      	ldr	r3, [r7, #12]
 8001508:	6a5b      	ldr	r3, [r3, #36]	; 0x24
 800150a:	f443 2280 	orr.w	r2, r3, #262144	; 0x40000
 800150e:	68fb      	ldr	r3, [r7, #12]
 8001510:	625a      	str	r2, [r3, #36]	; 0x24
 8001512:	2301      	movs	r3, #1
 8001514:	4618      	mov	r0, r3
 8001516:	3724      	adds	r7, #36	; 0x24
 8001518:	46bd      	mov	sp, r7
 800151a:	bc80      	pop	{r7}
 800151c:	4770      	bx	lr

0800151e <HAL_CAN_GetTxMailboxesFreeLevel>:
 800151e:	b480      	push	{r7}
 8001520:	b085      	sub	sp, #20
 8001522:	af00      	add	r7, sp, #0
 8001524:	6078      	str	r0, [r7, #4]
 8001526:	2300      	movs	r3, #0
 8001528:	60fb      	str	r3, [r7, #12]
 800152a:	687b      	ldr	r3, [r7, #4]
 800152c:	f893 3020 	ldrb.w	r3, [r3, #32]
 8001530:	72fb      	strb	r3, [r7, #11]
 8001532:	7afb      	ldrb	r3, [r7, #11]
 8001534:	2b01      	cmp	r3, #1
 8001536:	d002      	beq.n	800153e <HAL_CAN_GetTxMailboxesFreeLevel+0x20>
 8001538:	7afb      	ldrb	r3, [r7, #11]
 800153a:	2b02      	cmp	r3, #2
 800153c:	d11d      	bne.n	800157a <HAL_CAN_GetTxMailboxesFreeLevel+0x5c>
 800153e:	687b      	ldr	r3, [r7, #4]
 8001540:	681b      	ldr	r3, [r3, #0]
 8001542:	689b      	ldr	r3, [r3, #8]
 8001544:	f003 6380 	and.w	r3, r3, #67108864	; 0x4000000
 8001548:	2b00      	cmp	r3, #0
 800154a:	d002      	beq.n	8001552 <HAL_CAN_GetTxMailboxesFreeLevel+0x34>
 800154c:	68fb      	ldr	r3, [r7, #12]
 800154e:	3301      	adds	r3, #1
 8001550:	60fb      	str	r3, [r7, #12]
 8001552:	687b      	ldr	r3, [r7, #4]
 8001554:	681b      	ldr	r3, [r3, #0]
 8001556:	689b      	ldr	r3, [r3, #8]
 8001558:	f003 6300 	and.w	r3, r3, #134217728	; 0x8000000
 800155c:	2b00      	cmp	r3, #0
 800155e:	d002      	beq.n	8001566 <HAL_CAN_GetTxMailboxesFreeLevel+0x48>
 8001560:	68fb      	ldr	r3, [r7, #12]
 8001562:	3301      	adds	r3, #1
 8001564:	60fb      	str	r3, [r7, #12]
 8001566:	687b      	ldr	r3, [r7, #4]
 8001568:	681b      	ldr	r3, [r3, #0]
 800156a:	689b      	ldr	r3, [r3, #8]
 800156c:	f003 5380 	and.w	r3, r3, #268435456	; 0x10000000
 8001570:	2b00      	cmp	r3, #0
 8001572:	d002      	beq.n	800157a <HAL_CAN_GetTxMailboxesFreeLevel+0x5c>
 8001574:	68fb      	ldr	r3, [r7, #12]
 8001576:	3301      	adds	r3, #1
 8001578:	60fb      	str	r3, [r7, #12]
 800157a:	68fb      	ldr	r3, [r7, #12]
 800157c:	4618      	mov	r0, r3
 800157e:	3714      	adds	r7, #20
 8001580:	46bd      	mov	sp, r7
 8001582:	bc80      	pop	{r7}
 8001584:	4770      	bx	lr

08001586 <HAL_CAN_GetRxMessage>:
 8001586:	b480      	push	{r7}
 8001588:	b087      	sub	sp, #28
 800158a:	af00      	add	r7, sp, #0
 800158c:	60f8      	str	r0, [r7, #12]
 800158e:	60b9      	str	r1, [r7, #8]
 8001590:	607a      	str	r2, [r7, #4]
 8001592:	603b      	str	r3, [r7, #0]
 8001594:	68fb      	ldr	r3, [r7, #12]
 8001596:	f893 3020 	ldrb.w	r3, [r3, #32]
 800159a:	75fb      	strb	r3, [r7, #23]
 800159c:	7dfb      	ldrb	r3, [r7, #23]
 800159e:	2b01      	cmp	r3, #1
 80015a0:	d003      	beq.n	80015aa <HAL_CAN_GetRxMessage+0x24>
 80015a2:	7dfb      	ldrb	r3, [r7, #23]
 80015a4:	2b02      	cmp	r3, #2
 80015a6:	f040 8103 	bne.w	80017b0 <HAL_CAN_GetRxMessage+0x22a>
 80015aa:	68bb      	ldr	r3, [r7, #8]
 80015ac:	2b00      	cmp	r3, #0
 80015ae:	d10e      	bne.n	80015ce <HAL_CAN_GetRxMessage+0x48>
 80015b0:	68fb      	ldr	r3, [r7, #12]
 80015b2:	681b      	ldr	r3, [r3, #0]
 80015b4:	68db      	ldr	r3, [r3, #12]
 80015b6:	f003 0303 	and.w	r3, r3, #3
 80015ba:	2b00      	cmp	r3, #0
 80015bc:	d116      	bne.n	80015ec <HAL_CAN_GetRxMessage+0x66>
 80015be:	68fb      	ldr	r3, [r7, #12]
 80015c0:	6a5b      	ldr	r3, [r3, #36]	; 0x24
 80015c2:	f443 1200 	orr.w	r2, r3, #2097152	; 0x200000
 80015c6:	68fb      	ldr	r3, [r7, #12]
 80015c8:	625a      	str	r2, [r3, #36]	; 0x24
 80015ca:	2301      	movs	r3, #1
 80015cc:	e0f7      	b.n	80017be <HAL_CAN_GetRxMessage+0x238>
 80015ce:	68fb      	ldr	r3, [r7, #12]
 80015d0:	681b      	ldr	r3, [r3, #0]
 80015d2:	691b      	ldr	r3, [r3, #16]
 80015d4:	f003 0303 	and.w	r3, r3, #3
 80015d8:	2b00      	cmp	r3, #0
 80015da:	d107      	bne.n	80015ec <HAL_CAN_GetRxMessage+0x66>
 80015dc:	68fb      	ldr	r3, [r7, #12]
 80015de:	6a5b      	ldr	r3, [r3, #36]	; 0x24
 80015e0:	f443 1200 	orr.w	r2, r3, #2097152	; 0x200000
 80015e4:	68fb      	ldr	r3, [r7, #12]
 80015e6:	625a      	str	r2, [r3, #36]	; 0x24
 80015e8:	2301      	movs	r3, #1
 80015ea:	e0e8      	b.n	80017be <HAL_CAN_GetRxMessage+0x238>
 80015ec:	68fb      	ldr	r3, [r7, #12]
 80015ee:	681a      	ldr	r2, [r3, #0]
 80015f0:	68bb      	ldr	r3, [r7, #8]
 80015f2:	331b      	adds	r3, #27
 80015f4:	011b      	lsls	r3, r3, #4
 80015f6:	4413      	add	r3, r2
 80015f8:	681b      	ldr	r3, [r3, #0]
 80015fa:	f003 0204 	and.w	r2, r3, #4
 80015fe:	687b      	ldr	r3, [r7, #4]
 8001600:	609a      	str	r2, [r3, #8]
 8001602:	687b      	ldr	r3, [r7, #4]
 8001604:	689b      	ldr	r3, [r3, #8]
 8001606:	2b00      	cmp	r3, #0
 8001608:	d10c      	bne.n	8001624 <HAL_CAN_GetRxMessage+0x9e>
 800160a:	68fb      	ldr	r3, [r7, #12]
 800160c:	681a      	ldr	r2, [r3, #0]
 800160e:	68bb      	ldr	r3, [r7, #8]
 8001610:	331b      	adds	r3, #27
 8001612:	011b      	lsls	r3, r3, #4
 8001614:	4413      	add	r3, r2
 8001616:	681b      	ldr	r3, [r3, #0]
 8001618:	0d5b      	lsrs	r3, r3, #21
 800161a:	f3c3 020a 	ubfx	r2, r3, #0, #11
 800161e:	687b      	ldr	r3, [r7, #4]
 8001620:	601a      	str	r2, [r3, #0]
 8001622:	e00b      	b.n	800163c <HAL_CAN_GetRxMessage+0xb6>
 8001624:	68fb      	ldr	r3, [r7, #12]
 8001626:	681a      	ldr	r2, [r3, #0]
 8001628:	68bb      	ldr	r3, [r7, #8]
 800162a:	331b      	adds	r3, #27
 800162c:	011b      	lsls	r3, r3, #4
 800162e:	4413      	add	r3, r2
 8001630:	681b      	ldr	r3, [r3, #0]
 8001632:	08db      	lsrs	r3, r3, #3
 8001634:	f023 4260 	bic.w	r2, r3, #3758096384	; 0xe0000000
 8001638:	687b      	ldr	r3, [r7, #4]
 800163a:	605a      	str	r2, [r3, #4]
 800163c:	68fb      	ldr	r3, [r7, #12]
 800163e:	681a      	ldr	r2, [r3, #0]
 8001640:	68bb      	ldr	r3, [r7, #8]
 8001642:	331b      	adds	r3, #27
 8001644:	011b      	lsls	r3, r3, #4
 8001646:	4413      	add	r3, r2
 8001648:	681b      	ldr	r3, [r3, #0]
 800164a:	f003 0202 	and.w	r2, r3, #2
 800164e:	687b      	ldr	r3, [r7, #4]
 8001650:	60da      	str	r2, [r3, #12]
 8001652:	68fb      	ldr	r3, [r7, #12]
 8001654:	681a      	ldr	r2, [r3, #0]
 8001656:	68bb      	ldr	r3, [r7, #8]
 8001658:	331b      	adds	r3, #27
 800165a:	011b      	lsls	r3, r3, #4
 800165c:	4413      	add	r3, r2
 800165e:	3304      	adds	r3, #4
 8001660:	681b      	ldr	r3, [r3, #0]
 8001662:	f003 0308 	and.w	r3, r3, #8
 8001666:	2b00      	cmp	r3, #0
 8001668:	d003      	beq.n	8001672 <HAL_CAN_GetRxMessage+0xec>
 800166a:	687b      	ldr	r3, [r7, #4]
 800166c:	2208      	movs	r2, #8
 800166e:	611a      	str	r2, [r3, #16]
 8001670:	e00b      	b.n	800168a <HAL_CAN_GetRxMessage+0x104>
 8001672:	68fb      	ldr	r3, [r7, #12]
 8001674:	681a      	ldr	r2, [r3, #0]
 8001676:	68bb      	ldr	r3, [r7, #8]
 8001678:	331b      	adds	r3, #27
 800167a:	011b      	lsls	r3, r3, #4
 800167c:	4413      	add	r3, r2
 800167e:	3304      	adds	r3, #4
 8001680:	681b      	ldr	r3, [r3, #0]
 8001682:	f003 020f 	and.w	r2, r3, #15
 8001686:	687b      	ldr	r3, [r7, #4]
 8001688:	611a      	str	r2, [r3, #16]
 800168a:	68fb      	ldr	r3, [r7, #12]
 800168c:	681a      	ldr	r2, [r3, #0]
 800168e:	68bb      	ldr	r3, [r7, #8]
 8001690:	331b      	adds	r3, #27
 8001692:	011b      	lsls	r3, r3, #4
 8001694:	4413      	add	r3, r2
 8001696:	3304      	adds	r3, #4
 8001698:	681b      	ldr	r3, [r3, #0]
 800169a:	0a1b      	lsrs	r3, r3, #8
 800169c:	b2da      	uxtb	r2, r3
 800169e:	687b      	ldr	r3, [r7, #4]
 80016a0:	619a      	str	r2, [r3, #24]
 80016a2:	68fb      	ldr	r3, [r7, #12]
 80016a4:	681a      	ldr	r2, [r3, #0]
 80016a6:	68bb      	ldr	r3, [r7, #8]
 80016a8:	331b      	adds	r3, #27
 80016aa:	011b      	lsls	r3, r3, #4
 80016ac:	4413      	add	r3, r2
 80016ae:	3304      	adds	r3, #4
 80016b0:	681b      	ldr	r3, [r3, #0]
 80016b2:	0c1b      	lsrs	r3, r3, #16
 80016b4:	b29a      	uxth	r2, r3
 80016b6:	687b      	ldr	r3, [r7, #4]
 80016b8:	615a      	str	r2, [r3, #20]
 80016ba:	68fb      	ldr	r3, [r7, #12]
 80016bc:	681a      	ldr	r2, [r3, #0]
 80016be:	68bb      	ldr	r3, [r7, #8]
 80016c0:	011b      	lsls	r3, r3, #4
 80016c2:	4413      	add	r3, r2
 80016c4:	f503 73dc 	add.w	r3, r3, #440	; 0x1b8
 80016c8:	681b      	ldr	r3, [r3, #0]
 80016ca:	b2da      	uxtb	r2, r3
 80016cc:	683b      	ldr	r3, [r7, #0]
 80016ce:	701a      	strb	r2, [r3, #0]
 80016d0:	68fb      	ldr	r3, [r7, #12]
 80016d2:	681a      	ldr	r2, [r3, #0]
 80016d4:	68bb      	ldr	r3, [r7, #8]
 80016d6:	011b      	lsls	r3, r3, #4
 80016d8:	4413      	add	r3, r2
 80016da:	f503 73dc 	add.w	r3, r3, #440	; 0x1b8
 80016de:	681b      	ldr	r3, [r3, #0]
 80016e0:	0a1a      	lsrs	r2, r3, #8
 80016e2:	683b      	ldr	r3, [r7, #0]
 80016e4:	3301      	adds	r3, #1
 80016e6:	b2d2      	uxtb	r2, r2
 80016e8:	701a      	strb	r2, [r3, #0]
 80016ea:	68fb      	ldr	r3, [r7, #12]
 80016ec:	681a      	ldr	r2, [r3, #0]
 80016ee:	68bb      	ldr	r3, [r7, #8]
 80016f0:	011b      	lsls	r3, r3, #4
 80016f2:	4413      	add	r3, r2
 80016f4:	f503 73dc 	add.w	r3, r3, #440	; 0x1b8
 80016f8:	681b      	ldr	r3, [r3, #0]
 80016fa:	0c1a      	lsrs	r2, r3, #16
 80016fc:	683b      	ldr	r3, [r7, #0]
 80016fe:	3302      	adds	r3, #2
 8001700:	b2d2      	uxtb	r2, r2
 8001702:	701a      	strb	r2, [r3, #0]
 8001704:	68fb      	ldr	r3, [r7, #12]
 8001706:	681a      	ldr	r2, [r3, #0]
 8001708:	68bb      	ldr	r3, [r7, #8]
 800170a:	011b      	lsls	r3, r3, #4
 800170c:	4413      	add	r3, r2
 800170e:	f503 73dc 	add.w	r3, r3, #440	; 0x1b8
 8001712:	681b      	ldr	r3, [r3, #0]
 8001714:	0e1a      	lsrs	r2, r3, #24
 8001716:	683b      	ldr	r3, [r7, #0]
 8001718:	3303      	adds	r3, #3
 800171a:	b2d2      	uxtb	r2, r2
 800171c:	701a      	strb	r2, [r3, #0]
 800171e:	68fb      	ldr	r3, [r7, #12]
 8001720:	681a      	ldr	r2, [r3, #0]
 8001722:	68bb      	ldr	r3, [r7, #8]
 8001724:	011b      	lsls	r3, r3, #4
 8001726:	4413      	add	r3, r2
 8001728:	f503 73de 	add.w	r3, r3, #444	; 0x1bc
 800172c:	681a      	ldr	r2, [r3, #0]
 800172e:	683b      	ldr	r3, [r7, #0]
 8001730:	3304      	adds	r3, #4
 8001732:	b2d2      	uxtb	r2, r2
 8001734:	701a      	strb	r2, [r3, #0]
 8001736:	68fb      	ldr	r3, [r7, #12]
 8001738:	681a      	ldr	r2, [r3, #0]
 800173a:	68bb      	ldr	r3, [r7, #8]
 800173c:	011b      	lsls	r3, r3, #4
 800173e:	4413      	add	r3, r2
 8001740:	f503 73de 	add.w	r3, r3, #444	; 0x1bc
 8001744:	681b      	ldr	r3, [r3, #0]
 8001746:	0a1a      	lsrs	r2, r3, #8
 8001748:	683b      	ldr	r3, [r7, #0]
 800174a:	3305      	adds	r3, #5
 800174c:	b2d2      	uxtb	r2, r2
 800174e:	701a      	strb	r2, [r3, #0]
 8001750:	68fb      	ldr	r3, [r7, #12]
 8001752:	681a      	ldr	r2, [r3, #0]
 8001754:	68bb      	ldr	r3, [r7, #8]
 8001756:	011b      	lsls	r3, r3, #4
 8001758:	4413      	add	r3, r2
 800175a:	f503 73de 	add.w	r3, r3, #444	; 0x1bc
 800175e:	681b      	ldr	r3, [r3, #0]
 8001760:	0c1a      	lsrs	r2, r3, #16
 8001762:	683b      	ldr	r3, [r7, #0]
 8001764:	3306      	adds	r3, #6
 8001766:	b2d2      	uxtb	r2, r2
 8001768:	701a      	strb	r2, [r3, #0]
 800176a:	68fb      	ldr	r3, [r7, #12]
 800176c:	681a      	ldr	r2, [r3, #0]
 800176e:	68bb      	ldr	r3, [r7, #8]
 8001770:	011b      	lsls	r3, r3, #4
 8001772:	4413      	add	r3, r2
 8001774:	f503 73de 	add.w	r3, r3, #444	; 0x1bc
 8001778:	681b      	ldr	r3, [r3, #0]
 800177a:	0e1a      	lsrs	r2, r3, #24
 800177c:	683b      	ldr	r3, [r7, #0]
 800177e:	3307      	adds	r3, #7
 8001780:	b2d2      	uxtb	r2, r2
 8001782:	701a      	strb	r2, [r3, #0]
 8001784:	68bb      	ldr	r3, [r7, #8]
 8001786:	2b00      	cmp	r3, #0
 8001788:	d108      	bne.n	800179c <HAL_CAN_GetRxMessage+0x216>
 800178a:	68fb      	ldr	r3, [r7, #12]
 800178c:	681b      	ldr	r3, [r3, #0]
 800178e:	68da      	ldr	r2, [r3, #12]
 8001790:	68fb      	ldr	r3, [r7, #12]
 8001792:	681b      	ldr	r3, [r3, #0]
 8001794:	f042 0220 	orr.w	r2, r2, #32
 8001798:	60da      	str	r2, [r3, #12]
 800179a:	e007      	b.n	80017ac <HAL_CAN_GetRxMessage+0x226>
 800179c:	68fb      	ldr	r3, [r7, #12]
 800179e:	681b      	ldr	r3, [r3, #0]
 80017a0:	691a      	ldr	r2, [r3, #16]
 80017a2:	68fb      	ldr	r3, [r7, #12]
 80017a4:	681b      	ldr	r3, [r3, #0]
 80017a6:	f042 0220 	orr.w	r2, r2, #32
 80017aa:	611a      	str	r2, [r3, #16]
 80017ac:	2300      	movs	r3, #0
 80017ae:	e006      	b.n	80017be <HAL_CAN_GetRxMessage+0x238>
 80017b0:	68fb      	ldr	r3, [r7, #12]
 80017b2:	6a5b      	ldr	r3, [r3, #36]	; 0x24
 80017b4:	f443 2280 	orr.w	r2, r3, #262144	; 0x40000
 80017b8:	68fb      	ldr	r3, [r7, #12]
 80017ba:	625a      	str	r2, [r3, #36]	; 0x24
 80017bc:	2301      	movs	r3, #1
 80017be:	4618      	mov	r0, r3
 80017c0:	371c      	adds	r7, #28
 80017c2:	46bd      	mov	sp, r7
 80017c4:	bc80      	pop	{r7}
 80017c6:	4770      	bx	lr

080017c8 <HAL_CAN_ActivateNotification>:
 80017c8:	b480      	push	{r7}
 80017ca:	b085      	sub	sp, #20
 80017cc:	af00      	add	r7, sp, #0
 80017ce:	6078      	str	r0, [r7, #4]
 80017d0:	6039      	str	r1, [r7, #0]
 80017d2:	687b      	ldr	r3, [r7, #4]
 80017d4:	f893 3020 	ldrb.w	r3, [r3, #32]
 80017d8:	73fb      	strb	r3, [r7, #15]
 80017da:	7bfb      	ldrb	r3, [r7, #15]
 80017dc:	2b01      	cmp	r3, #1
 80017de:	d002      	beq.n	80017e6 <HAL_CAN_ActivateNotification+0x1e>
 80017e0:	7bfb      	ldrb	r3, [r7, #15]
 80017e2:	2b02      	cmp	r3, #2
 80017e4:	d109      	bne.n	80017fa <HAL_CAN_ActivateNotification+0x32>
 80017e6:	687b      	ldr	r3, [r7, #4]
 80017e8:	681b      	ldr	r3, [r3, #0]
 80017ea:	6959      	ldr	r1, [r3, #20]
 80017ec:	687b      	ldr	r3, [r7, #4]
 80017ee:	681b      	ldr	r3, [r3, #0]
 80017f0:	683a      	ldr	r2, [r7, #0]
 80017f2:	430a      	orrs	r2, r1
 80017f4:	615a      	str	r2, [r3, #20]
 80017f6:	2300      	movs	r3, #0
 80017f8:	e006      	b.n	8001808 <HAL_CAN_ActivateNotification+0x40>
 80017fa:	687b      	ldr	r3, [r7, #4]
 80017fc:	6a5b      	ldr	r3, [r3, #36]	; 0x24
 80017fe:	f443 2280 	orr.w	r2, r3, #262144	; 0x40000
 8001802:	687b      	ldr	r3, [r7, #4]
 8001804:	625a      	str	r2, [r3, #36]	; 0x24
 8001806:	2301      	movs	r3, #1
 8001808:	4618      	mov	r0, r3
 800180a:	3714      	adds	r7, #20
 800180c:	46bd      	mov	sp, r7
 800180e:	bc80      	pop	{r7}
 8001810:	4770      	bx	lr

08001812 <HAL_CAN_IRQHandler>:
 8001812:	b580      	push	{r7, lr}
 8001814:	b08a      	sub	sp, #40	; 0x28
 8001816:	af00      	add	r7, sp, #0
 8001818:	6078      	str	r0, [r7, #4]
 800181a:	2300      	movs	r3, #0
 800181c:	627b      	str	r3, [r7, #36]	; 0x24
 800181e:	687b      	ldr	r3, [r7, #4]
 8001820:	681b      	ldr	r3, [r3, #0]
 8001822:	695b      	ldr	r3, [r3, #20]
 8001824:	623b      	str	r3, [r7, #32]
 8001826:	687b      	ldr	r3, [r7, #4]
 8001828:	681b      	ldr	r3, [r3, #0]
 800182a:	685b      	ldr	r3, [r3, #4]
 800182c:	61fb      	str	r3, [r7, #28]
 800182e:	687b      	ldr	r3, [r7, #4]
 8001830:	681b      	ldr	r3, [r3, #0]
 8001832:	689b      	ldr	r3, [r3, #8]
 8001834:	61bb      	str	r3, [r7, #24]
 8001836:	687b      	ldr	r3, [r7, #4]
 8001838:	681b      	ldr	r3, [r3, #0]
 800183a:	68db      	ldr	r3, [r3, #12]
 800183c:	617b      	str	r3, [r7, #20]
 800183e:	687b      	ldr	r3, [r7, #4]
 8001840:	681b      	ldr	r3, [r3, #0]
 8001842:	691b      	ldr	r3, [r3, #16]
 8001844:	613b      	str	r3, [r7, #16]
 8001846:	687b      	ldr	r3, [r7, #4]
 8001848:	681b      	ldr	r3, [r3, #0]
 800184a:	699b      	ldr	r3, [r3, #24]
 800184c:	60fb      	str	r3, [r7, #12]
 800184e:	6a3b      	ldr	r3, [r7, #32]
 8001850:	f003 0301 	and.w	r3, r3, #1
 8001854:	2b00      	cmp	r3, #0
 8001856:	d07c      	beq.n	8001952 <HAL_CAN_IRQHandler+0x140>
 8001858:	69bb      	ldr	r3, [r7, #24]
 800185a:	f003 0301 	and.w	r3, r3, #1
 800185e:	2b00      	cmp	r3, #0
 8001860:	d023      	beq.n	80018aa <HAL_CAN_IRQHandler+0x98>
 8001862:	687b      	ldr	r3, [r7, #4]
 8001864:	681b      	ldr	r3, [r3, #0]
 8001866:	2201      	movs	r2, #1
 8001868:	609a      	str	r2, [r3, #8]
 800186a:	69bb      	ldr	r3, [r7, #24]
 800186c:	f003 0302 	and.w	r3, r3, #2
 8001870:	2b00      	cmp	r3, #0
 8001872:	d003      	beq.n	800187c <HAL_CAN_IRQHandler+0x6a>
 8001874:	6878      	ldr	r0, [r7, #4]
 8001876:	f000 f983 	bl	8001b80 <HAL_CAN_TxMailbox0CompleteCallback>
 800187a:	e016      	b.n	80018aa <HAL_CAN_IRQHandler+0x98>
 800187c:	69bb      	ldr	r3, [r7, #24]
 800187e:	f003 0304 	and.w	r3, r3, #4
 8001882:	2b00      	cmp	r3, #0
 8001884:	d004      	beq.n	8001890 <HAL_CAN_IRQHandler+0x7e>
 8001886:	6a7b      	ldr	r3, [r7, #36]	; 0x24
 8001888:	f443 6300 	orr.w	r3, r3, #2048	; 0x800
 800188c:	627b      	str	r3, [r7, #36]	; 0x24
 800188e:	e00c      	b.n	80018aa <HAL_CAN_IRQHandler+0x98>
 8001890:	69bb      	ldr	r3, [r7, #24]
 8001892:	f003 0308 	and.w	r3, r3, #8
 8001896:	2b00      	cmp	r3, #0
 8001898:	d004      	beq.n	80018a4 <HAL_CAN_IRQHandler+0x92>
 800189a:	6a7b      	ldr	r3, [r7, #36]	; 0x24
 800189c:	f443 5380 	orr.w	r3, r3, #4096	; 0x1000
 80018a0:	627b      	str	r3, [r7, #36]	; 0x24
 80018a2:	e002      	b.n	80018aa <HAL_CAN_IRQHandler+0x98>
 80018a4:	6878      	ldr	r0, [r7, #4]
 80018a6:	f000 f986 	bl	8001bb6 <HAL_CAN_TxMailbox0AbortCallback>
 80018aa:	69bb      	ldr	r3, [r7, #24]
 80018ac:	f403 7380 	and.w	r3, r3, #256	; 0x100
 80018b0:	2b00      	cmp	r3, #0
 80018b2:	d024      	beq.n	80018fe <HAL_CAN_IRQHandler+0xec>
 80018b4:	687b      	ldr	r3, [r7, #4]
 80018b6:	681b      	ldr	r3, [r3, #0]
 80018b8:	f44f 7280 	mov.w	r2, #256	; 0x100
 80018bc:	609a      	str	r2, [r3, #8]
 80018be:	69bb      	ldr	r3, [r7, #24]
 80018c0:	f403 7300 	and.w	r3, r3, #512	; 0x200
 80018c4:	2b00      	cmp	r3, #0
 80018c6:	d003      	beq.n	80018d0 <HAL_CAN_IRQHandler+0xbe>
 80018c8:	6878      	ldr	r0, [r7, #4]
 80018ca:	f000 f962 	bl	8001b92 <HAL_CAN_TxMailbox1CompleteCallback>
 80018ce:	e016      	b.n	80018fe <HAL_CAN_IRQHandler+0xec>
 80018d0:	69bb      	ldr	r3, [r7, #24]
 80018d2:	f403 6380 	and.w	r3, r3, #1024	; 0x400
 80018d6:	2b00      	cmp	r3, #0
 80018d8:	d004      	beq.n	80018e4 <HAL_CAN_IRQHandler+0xd2>
 80018da:	6a7b      	ldr	r3, [r7, #36]	; 0x24
 80018dc:	f443 5300 	orr.w	r3, r3, #8192	; 0x2000
 80018e0:	627b      	str	r3, [r7, #36]	; 0x24
 80018e2:	e00c      	b.n	80018fe <HAL_CAN_IRQHandler+0xec>
 80018e4:	69bb      	ldr	r3, [r7, #24]
 80018e6:	f403 6300 	and.w	r3, r3, #2048	; 0x800
 80018ea:	2b00      	cmp	r3, #0
 80018ec:	d004      	beq.n	80018f8 <HAL_CAN_IRQHandler+0xe6>
 80018ee:	6a7b      	ldr	r3, [r7, #36]	; 0x24
 80018f0:	f443 4380 	orr.w	r3, r3, #16384	; 0x4000
 80018f4:	627b      	str	r3, [r7, #36]	; 0x24
 80018f6:	e002      	b.n	80018fe <HAL_CAN_IRQHandler+0xec>
 80018f8:	6878      	ldr	r0, [r7, #4]
 80018fa:	f000 f965 	bl	8001bc8 <HAL_CAN_TxMailbox1AbortCallback>
 80018fe:	69bb      	ldr	r3, [r7, #24]
 8001900:	f403 3380 	and.w	r3, r3, #65536	; 0x10000
 8001904:	2b00      	cmp	r3, #0
 8001906:	d024      	beq.n	8001952 <HAL_CAN_IRQHandler+0x140>
 8001908:	687b      	ldr	r3, [r7, #4]
 800190a:	681b      	ldr	r3, [r3, #0]
 800190c:	f44f 3280 	mov.w	r2, #65536	; 0x10000
 8001910:	609a      	str	r2, [r3, #8]
 8001912:	69bb      	ldr	r3, [r7, #24]
 8001914:	f403 3300 	and.w	r3, r3, #131072	; 0x20000
 8001918:	2b00      	cmp	r3, #0
 800191a:	d003      	beq.n	8001924 <HAL_CAN_IRQHandler+0x112>
 800191c:	6878      	ldr	r0, [r7, #4]
 800191e:	f000 f941 	bl	8001ba4 <HAL_CAN_TxMailbox2CompleteCallback>
 8001922:	e016      	b.n	8001952 <HAL_CAN_IRQHandler+0x140>
 8001924:	69bb      	ldr	r3, [r7, #24]
 8001926:	f403 2380 	and.w	r3, r3, #262144	; 0x40000
 800192a:	2b00      	cmp	r3, #0
 800192c:	d004      	beq.n	8001938 <HAL_CAN_IRQHandler+0x126>
 800192e:	6a7b      	ldr	r3, [r7, #36]	; 0x24
 8001930:	f443 4300 	orr.w	r3, r3, #32768	; 0x8000
 8001934:	627b      	str	r3, [r7, #36]	; 0x24
 8001936:	e00c      	b.n	8001952 <HAL_CAN_IRQHandler+0x140>
 8001938:	69bb      	ldr	r3, [r7, #24]
 800193a:	f403 2300 	and.w	r3, r3, #524288	; 0x80000
 800193e:	2b00      	cmp	r3, #0
 8001940:	d004      	beq.n	800194c <HAL_CAN_IRQHandler+0x13a>
 8001942:	6a7b      	ldr	r3, [r7, #36]	; 0x24
 8001944:	f443 3380 	orr.w	r3, r3, #65536	; 0x10000
 8001948:	627b      	str	r3, [r7, #36]	; 0x24
 800194a:	e002      	b.n	8001952 <HAL_CAN_IRQHandler+0x140>
 800194c:	6878      	ldr	r0, [r7, #4]
 800194e:	f000 f944 	bl	8001bda <HAL_CAN_TxMailbox2AbortCallback>
 8001952:	6a3b      	ldr	r3, [r7, #32]
 8001954:	f003 0308 	and.w	r3, r3, #8
 8001958:	2b00      	cmp	r3, #0
 800195a:	d00c      	beq.n	8001976 <HAL_CAN_IRQHandler+0x164>
 800195c:	697b      	ldr	r3, [r7, #20]
 800195e:	f003 0310 	and.w	r3, r3, #16
 8001962:	2b00      	cmp	r3, #0
 8001964:	d007      	beq.n	8001976 <HAL_CAN_IRQHandler+0x164>
 8001966:	6a7b      	ldr	r3, [r7, #36]	; 0x24
 8001968:	f443 7300 	orr.w	r3, r3, #512	; 0x200
 800196c:	627b      	str	r3, [r7, #36]	; 0x24
 800196e:	687b      	ldr	r3, [r7, #4]
 8001970:	681b      	ldr	r3, [r3, #0]
 8001972:	2210      	movs	r2, #16
 8001974:	60da      	str	r2, [r3, #12]
 8001976:	6a3b      	ldr	r3, [r7, #32]
 8001978:	f003 0304 	and.w	r3, r3, #4
 800197c:	2b00      	cmp	r3, #0
 800197e:	d00b      	beq.n	8001998 <HAL_CAN_IRQHandler+0x186>
 8001980:	697b      	ldr	r3, [r7, #20]
 8001982:	f003 0308 	and.w	r3, r3, #8
 8001986:	2b00      	cmp	r3, #0
 8001988:	d006      	beq.n	8001998 <HAL_CAN_IRQHandler+0x186>
 800198a:	687b      	ldr	r3, [r7, #4]
 800198c:	681b      	ldr	r3, [r3, #0]
 800198e:	2208      	movs	r2, #8
 8001990:	60da      	str	r2, [r3, #12]
 8001992:	6878      	ldr	r0, [r7, #4]
 8001994:	f000 f92a 	bl	8001bec <HAL_CAN_RxFifo0FullCallback>
 8001998:	6a3b      	ldr	r3, [r7, #32]
 800199a:	f003 0302 	and.w	r3, r3, #2
 800199e:	2b00      	cmp	r3, #0
 80019a0:	d009      	beq.n	80019b6 <HAL_CAN_IRQHandler+0x1a4>
 80019a2:	687b      	ldr	r3, [r7, #4]
 80019a4:	681b      	ldr	r3, [r3, #0]
 80019a6:	68db      	ldr	r3, [r3, #12]
 80019a8:	f003 0303 	and.w	r3, r3, #3
 80019ac:	2b00      	cmp	r3, #0
 80019ae:	d002      	beq.n	80019b6 <HAL_CAN_IRQHandler+0x1a4>
 80019b0:	6878      	ldr	r0, [r7, #4]
 80019b2:	f7fe fbcb 	bl	800014c <HAL_CAN_RxFifo0MsgPendingCallback>
 80019b6:	6a3b      	ldr	r3, [r7, #32]
 80019b8:	f003 0340 	and.w	r3, r3, #64	; 0x40
 80019bc:	2b00      	cmp	r3, #0
 80019be:	d00c      	beq.n	80019da <HAL_CAN_IRQHandler+0x1c8>
 80019c0:	693b      	ldr	r3, [r7, #16]
 80019c2:	f003 0310 	and.w	r3, r3, #16
 80019c6:	2b00      	cmp	r3, #0
 80019c8:	d007      	beq.n	80019da <HAL_CAN_IRQHandler+0x1c8>
 80019ca:	6a7b      	ldr	r3, [r7, #36]	; 0x24
 80019cc:	f443 6380 	orr.w	r3, r3, #1024	; 0x400
 80019d0:	627b      	str	r3, [r7, #36]	; 0x24
 80019d2:	687b      	ldr	r3, [r7, #4]
 80019d4:	681b      	ldr	r3, [r3, #0]
 80019d6:	2210      	movs	r2, #16
 80019d8:	611a      	str	r2, [r3, #16]
 80019da:	6a3b      	ldr	r3, [r7, #32]
 80019dc:	f003 0320 	and.w	r3, r3, #32
 80019e0:	2b00      	cmp	r3, #0
 80019e2:	d00b      	beq.n	80019fc <HAL_CAN_IRQHandler+0x1ea>
 80019e4:	693b      	ldr	r3, [r7, #16]
 80019e6:	f003 0308 	and.w	r3, r3, #8
 80019ea:	2b00      	cmp	r3, #0
 80019ec:	d006      	beq.n	80019fc <HAL_CAN_IRQHandler+0x1ea>
 80019ee:	687b      	ldr	r3, [r7, #4]
 80019f0:	681b      	ldr	r3, [r3, #0]
 80019f2:	2208      	movs	r2, #8
 80019f4:	611a      	str	r2, [r3, #16]
 80019f6:	6878      	ldr	r0, [r7, #4]
 80019f8:	f000 f90a 	bl	8001c10 <HAL_CAN_RxFifo1FullCallback>
 80019fc:	6a3b      	ldr	r3, [r7, #32]
 80019fe:	f003 0310 	and.w	r3, r3, #16
 8001a02:	2b00      	cmp	r3, #0
 8001a04:	d009      	beq.n	8001a1a <HAL_CAN_IRQHandler+0x208>
 8001a06:	687b      	ldr	r3, [r7, #4]
 8001a08:	681b      	ldr	r3, [r3, #0]
 8001a0a:	691b      	ldr	r3, [r3, #16]
 8001a0c:	f003 0303 	and.w	r3, r3, #3
 8001a10:	2b00      	cmp	r3, #0
 8001a12:	d002      	beq.n	8001a1a <HAL_CAN_IRQHandler+0x208>
 8001a14:	6878      	ldr	r0, [r7, #4]
 8001a16:	f000 f8f2 	bl	8001bfe <HAL_CAN_RxFifo1MsgPendingCallback>
 8001a1a:	6a3b      	ldr	r3, [r7, #32]
 8001a1c:	f403 3300 	and.w	r3, r3, #131072	; 0x20000
 8001a20:	2b00      	cmp	r3, #0
 8001a22:	d00b      	beq.n	8001a3c <HAL_CAN_IRQHandler+0x22a>
 8001a24:	69fb      	ldr	r3, [r7, #28]
 8001a26:	f003 0310 	and.w	r3, r3, #16
 8001a2a:	2b00      	cmp	r3, #0
 8001a2c:	d006      	beq.n	8001a3c <HAL_CAN_IRQHandler+0x22a>
 8001a2e:	687b      	ldr	r3, [r7, #4]
 8001a30:	681b      	ldr	r3, [r3, #0]
 8001a32:	2210      	movs	r2, #16
 8001a34:	605a      	str	r2, [r3, #4]
 8001a36:	6878      	ldr	r0, [r7, #4]
 8001a38:	f000 f8f3 	bl	8001c22 <HAL_CAN_SleepCallback>
 8001a3c:	6a3b      	ldr	r3, [r7, #32]
 8001a3e:	f403 3380 	and.w	r3, r3, #65536	; 0x10000
 8001a42:	2b00      	cmp	r3, #0
 8001a44:	d00b      	beq.n	8001a5e <HAL_CAN_IRQHandler+0x24c>
 8001a46:	69fb      	ldr	r3, [r7, #28]
 8001a48:	f003 0308 	and.w	r3, r3, #8
 8001a4c:	2b00      	cmp	r3, #0
 8001a4e:	d006      	beq.n	8001a5e <HAL_CAN_IRQHandler+0x24c>
 8001a50:	687b      	ldr	r3, [r7, #4]
 8001a52:	681b      	ldr	r3, [r3, #0]
 8001a54:	2208      	movs	r2, #8
 8001a56:	605a      	str	r2, [r3, #4]
 8001a58:	6878      	ldr	r0, [r7, #4]
 8001a5a:	f000 f8eb 	bl	8001c34 <HAL_CAN_WakeUpFromRxMsgCallback>
 8001a5e:	6a3b      	ldr	r3, [r7, #32]
 8001a60:	f403 4300 	and.w	r3, r3, #32768	; 0x8000
 8001a64:	2b00      	cmp	r3, #0
 8001a66:	d07b      	beq.n	8001b60 <HAL_CAN_IRQHandler+0x34e>
 8001a68:	69fb      	ldr	r3, [r7, #28]
 8001a6a:	f003 0304 	and.w	r3, r3, #4
 8001a6e:	2b00      	cmp	r3, #0
 8001a70:	d072      	beq.n	8001b58 <HAL_CAN_IRQHandler+0x346>
 8001a72:	6a3b      	ldr	r3, [r7, #32]
 8001a74:	f403 7380 	and.w	r3, r3, #256	; 0x100
 8001a78:	2b00      	cmp	r3, #0
 8001a7a:	d008      	beq.n	8001a8e <HAL_CAN_IRQHandler+0x27c>
 8001a7c:	68fb      	ldr	r3, [r7, #12]
 8001a7e:	f003 0301 	and.w	r3, r3, #1
 8001a82:	2b00      	cmp	r3, #0
 8001a84:	d003      	beq.n	8001a8e <HAL_CAN_IRQHandler+0x27c>
 8001a86:	6a7b      	ldr	r3, [r7, #36]	; 0x24
 8001a88:	f043 0301 	orr.w	r3, r3, #1
 8001a8c:	627b      	str	r3, [r7, #36]	; 0x24
 8001a8e:	6a3b      	ldr	r3, [r7, #32]
 8001a90:	f403 7300 	and.w	r3, r3, #512	; 0x200
 8001a94:	2b00      	cmp	r3, #0
 8001a96:	d008      	beq.n	8001aaa <HAL_CAN_IRQHandler+0x298>
 8001a98:	68fb      	ldr	r3, [r7, #12]
 8001a9a:	f003 0302 	and.w	r3, r3, #2
 8001a9e:	2b00      	cmp	r3, #0
 8001aa0:	d003      	beq.n	8001aaa <HAL_CAN_IRQHandler+0x298>
 8001aa2:	6a7b      	ldr	r3, [r7, #36]	; 0x24
 8001aa4:	f043 0302 	orr.w	r3, r3, #2
 8001aa8:	627b      	str	r3, [r7, #36]	; 0x24
 8001aaa:	6a3b      	ldr	r3, [r7, #32]
 8001aac:	f403 6380 	and.w	r3, r3, #1024	; 0x400
 8001ab0:	2b00      	cmp	r3, #0
 8001ab2:	d008      	beq.n	8001ac6 <HAL_CAN_IRQHandler+0x2b4>
 8001ab4:	68fb      	ldr	r3, [r7, #12]
 8001ab6:	f003 0304 	and.w	r3, r3, #4
 8001aba:	2b00      	cmp	r3, #0
 8001abc:	d003      	beq.n	8001ac6 <HAL_CAN_IRQHandler+0x2b4>
 8001abe:	6a7b      	ldr	r3, [r7, #36]	; 0x24
 8001ac0:	f043 0304 	orr.w	r3, r3, #4
 8001ac4:	627b      	str	r3, [r7, #36]	; 0x24
 8001ac6:	6a3b      	ldr	r3, [r7, #32]
 8001ac8:	f403 6300 	and.w	r3, r3, #2048	; 0x800
 8001acc:	2b00      	cmp	r3, #0
 8001ace:	d043      	beq.n	8001b58 <HAL_CAN_IRQHandler+0x346>
 8001ad0:	68fb      	ldr	r3, [r7, #12]
 8001ad2:	f003 0370 	and.w	r3, r3, #112	; 0x70
 8001ad6:	2b00      	cmp	r3, #0
 8001ad8:	d03e      	beq.n	8001b58 <HAL_CAN_IRQHandler+0x346>
 8001ada:	68fb      	ldr	r3, [r7, #12]
 8001adc:	f003 0370 	and.w	r3, r3, #112	; 0x70
 8001ae0:	2b60      	cmp	r3, #96	; 0x60
 8001ae2:	d02b      	beq.n	8001b3c <HAL_CAN_IRQHandler+0x32a>
 8001ae4:	2b60      	cmp	r3, #96	; 0x60
 8001ae6:	d82e      	bhi.n	8001b46 <HAL_CAN_IRQHandler+0x334>
 8001ae8:	2b50      	cmp	r3, #80	; 0x50
 8001aea:	d022      	beq.n	8001b32 <HAL_CAN_IRQHandler+0x320>
 8001aec:	2b50      	cmp	r3, #80	; 0x50
 8001aee:	d82a      	bhi.n	8001b46 <HAL_CAN_IRQHandler+0x334>
 8001af0:	2b40      	cmp	r3, #64	; 0x40
 8001af2:	d019      	beq.n	8001b28 <HAL_CAN_IRQHandler+0x316>
 8001af4:	2b40      	cmp	r3, #64	; 0x40
 8001af6:	d826      	bhi.n	8001b46 <HAL_CAN_IRQHandler+0x334>
 8001af8:	2b30      	cmp	r3, #48	; 0x30
 8001afa:	d010      	beq.n	8001b1e <HAL_CAN_IRQHandler+0x30c>
 8001afc:	2b30      	cmp	r3, #48	; 0x30
 8001afe:	d822      	bhi.n	8001b46 <HAL_CAN_IRQHandler+0x334>
 8001b00:	2b10      	cmp	r3, #16
 8001b02:	d002      	beq.n	8001b0a <HAL_CAN_IRQHandler+0x2f8>
 8001b04:	2b20      	cmp	r3, #32
 8001b06:	d005      	beq.n	8001b14 <HAL_CAN_IRQHandler+0x302>
 8001b08:	e01d      	b.n	8001b46 <HAL_CAN_IRQHandler+0x334>
 8001b0a:	6a7b      	ldr	r3, [r7, #36]	; 0x24
 8001b0c:	f043 0308 	orr.w	r3, r3, #8
 8001b10:	627b      	str	r3, [r7, #36]	; 0x24
 8001b12:	e019      	b.n	8001b48 <HAL_CAN_IRQHandler+0x336>
 8001b14:	6a7b      	ldr	r3, [r7, #36]	; 0x24
 8001b16:	f043 0310 	orr.w	r3, r3, #16
 8001b1a:	627b      	str	r3, [r7, #36]	; 0x24
 8001b1c:	e014      	b.n	8001b48 <HAL_CAN_IRQHandler+0x336>
 8001b1e:	6a7b      	ldr	r3, [r7, #36]	; 0x24
 8001b20:	f043 0320 	orr.w	r3, r3, #32
 8001b24:	627b      	str	r3, [r7, #36]	; 0x24
 8001b26:	e00f      	b.n	8001b48 <HAL_CAN_IRQHandler+0x336>
 8001b28:	6a7b      	ldr	r3, [r7, #36]	; 0x24
 8001b2a:	f043 0340 	orr.w	r3, r3, #64	; 0x40
 8001b2e:	627b      	str	r3, [r7, #36]	; 0x24
 8001b30:	e00a      	b.n	8001b48 <HAL_CAN_IRQHandler+0x336>
 8001b32:	6a7b      	ldr	r3, [r7, #36]	; 0x24
 8001b34:	f043 0380 	orr.w	r3, r3, #128	; 0x80
 8001b38:	627b      	str	r3, [r7, #36]	; 0x24
 8001b3a:	e005      	b.n	8001b48 <HAL_CAN_IRQHandler+0x336>
 8001b3c:	6a7b      	ldr	r3, [r7, #36]	; 0x24
 8001b3e:	f443 7380 	orr.w	r3, r3, #256	; 0x100
 8001b42:	627b      	str	r3, [r7, #36]	; 0x24
 8001b44:	e000      	b.n	8001b48 <HAL_CAN_IRQHandler+0x336>
 8001b46:	bf00      	nop
 8001b48:	687b      	ldr	r3, [r7, #4]
 8001b4a:	681b      	ldr	r3, [r3, #0]
 8001b4c:	699a      	ldr	r2, [r3, #24]
 8001b4e:	687b      	ldr	r3, [r7, #4]
 8001b50:	681b      	ldr	r3, [r3, #0]
 8001b52:	f022 0270 	bic.w	r2, r2, #112	; 0x70
 8001b56:	619a      	str	r2, [r3, #24]
 8001b58:	687b      	ldr	r3, [r7, #4]
 8001b5a:	681b      	ldr	r3, [r3, #0]
 8001b5c:	2204      	movs	r2, #4
 8001b5e:	605a      	str	r2, [r3, #4]
 8001b60:	6a7b      	ldr	r3, [r7, #36]	; 0x24
 8001b62:	2b00      	cmp	r3, #0
 8001b64:	d008      	beq.n	8001b78 <HAL_CAN_IRQHandler+0x366>
 8001b66:	687b      	ldr	r3, [r7, #4]
 8001b68:	6a5a      	ldr	r2, [r3, #36]	; 0x24
 8001b6a:	6a7b      	ldr	r3, [r7, #36]	; 0x24
 8001b6c:	431a      	orrs	r2, r3
 8001b6e:	687b      	ldr	r3, [r7, #4]
 8001b70:	625a      	str	r2, [r3, #36]	; 0x24
 8001b72:	6878      	ldr	r0, [r7, #4]
 8001b74:	f000 f867 	bl	8001c46 <HAL_CAN_ErrorCallback>
 8001b78:	bf00      	nop
 8001b7a:	3728      	adds	r7, #40	; 0x28
 8001b7c:	46bd      	mov	sp, r7
 8001b7e:	bd80      	pop	{r7, pc}

08001b80 <HAL_CAN_TxMailbox0CompleteCallback>:
 8001b80:	b480      	push	{r7}
 8001b82:	b083      	sub	sp, #12
 8001b84:	af00      	add	r7, sp, #0
 8001b86:	6078      	str	r0, [r7, #4]
 8001b88:	bf00      	nop
 8001b8a:	370c      	adds	r7, #12
 8001b8c:	46bd      	mov	sp, r7
 8001b8e:	bc80      	pop	{r7}
 8001b90:	4770      	bx	lr

08001b92 <HAL_CAN_TxMailbox1CompleteCallback>:
 8001b92:	b480      	push	{r7}
 8001b94:	b083      	sub	sp, #12
 8001b96:	af00      	add	r7, sp, #0
 8001b98:	6078      	str	r0, [r7, #4]
 8001b9a:	bf00      	nop
 8001b9c:	370c      	adds	r7, #12
 8001b9e:	46bd      	mov	sp, r7
 8001ba0:	bc80      	pop	{r7}
 8001ba2:	4770      	bx	lr

08001ba4 <HAL_CAN_TxMailbox2CompleteCallback>:
 8001ba4:	b480      	push	{r7}
 8001ba6:	b083      	sub	sp, #12
 8001ba8:	af00      	add	r7, sp, #0
 8001baa:	6078      	str	r0, [r7, #4]
 8001bac:	bf00      	nop
 8001bae:	370c      	adds	r7, #12
 8001bb0:	46bd      	mov	sp, r7
 8001bb2:	bc80      	pop	{r7}
 8001bb4:	4770      	bx	lr

08001bb6 <HAL_CAN_TxMailbox0AbortCallback>:
 8001bb6:	b480      	push	{r7}
 8001bb8:	b083      	sub	sp, #12
 8001bba:	af00      	add	r7, sp, #0
 8001bbc:	6078      	str	r0, [r7, #4]
 8001bbe:	bf00      	nop
 8001bc0:	370c      	adds	r7, #12
 8001bc2:	46bd      	mov	sp, r7
 8001bc4:	bc80      	pop	{r7}
 8001bc6:	4770      	bx	lr

08001bc8 <HAL_CAN_TxMailbox1AbortCallback>:
 8001bc8:	b480      	push	{r7}
 8001bca:	b083      	sub	sp, #12
 8001bcc:	af00      	add	r7, sp, #0
 8001bce:	6078      	str	r0, [r7, #4]
 8001bd0:	bf00      	nop
 8001bd2:	370c      	adds	r7, #12
 8001bd4:	46bd      	mov	sp, r7
 8001bd6:	bc80      	pop	{r7}
 8001bd8:	4770      	bx	lr

08001bda <HAL_CAN_TxMailbox2AbortCallback>:
 8001bda:	b480      	push	{r7}
 8001bdc:	b083      	sub	sp, #12
 8001bde:	af00      	add	r7, sp, #0
 8001be0:	6078      	str	r0, [r7, #4]
 8001be2:	bf00      	nop
 8001be4:	370c      	adds	r7, #12
 8001be6:	46bd      	mov	sp, r7
 8001be8:	bc80      	pop	{r7}
 8001bea:	4770      	bx	lr

08001bec <HAL_CAN_RxFifo0FullCallback>:
 8001bec:	b480      	push	{r7}
 8001bee:	b083      	sub	sp, #12
 8001bf0:	af00      	add	r7, sp, #0
 8001bf2:	6078      	str	r0, [r7, #4]
 8001bf4:	bf00      	nop
 8001bf6:	370c      	adds	r7, #12
 8001bf8:	46bd      	mov	sp, r7
 8001bfa:	bc80      	pop	{r7}
 8001bfc:	4770      	bx	lr

08001bfe <HAL_CAN_RxFifo1MsgPendingCallback>:
 8001bfe:	b480      	push	{r7}
 8001c00:	b083      	sub	sp, #12
 8001c02:	af00      	add	r7, sp, #0
 8001c04:	6078      	str	r0, [r7, #4]
 8001c06:	bf00      	nop
 8001c08:	370c      	adds	r7, #12
 8001c0a:	46bd      	mov	sp, r7
 8001c0c:	bc80      	pop	{r7}
 8001c0e:	4770      	bx	lr

08001c10 <HAL_CAN_RxFifo1FullCallback>:
 8001c10:	b480      	push	{r7}
 8001c12:	b083      	sub	sp, #12
 8001c14:	af00      	add	r7, sp, #0
 8001c16:	6078      	str	r0, [r7, #4]
 8001c18:	bf00      	nop
 8001c1a:	370c      	adds	r7, #12
 8001c1c:	46bd      	mov	sp, r7
 8001c1e:	bc80      	pop	{r7}
 8001c20:	4770      	bx	lr

08001c22 <HAL_CAN_SleepCallback>:
 8001c22:	b480      	push	{r7}
 8001c24:	b083      	sub	sp, #12
 8001c26:	af00      	add	r7, sp, #0
 8001c28:	6078      	str	r0, [r7, #4]
 8001c2a:	bf00      	nop
 8001c2c:	370c      	adds	r7, #12
 8001c2e:	46bd      	mov	sp, r7
 8001c30:	bc80      	pop	{r7}
 8001c32:	4770      	bx	lr

08001c34 <HAL_CAN_WakeUpFromRxMsgCallback>:
 8001c34:	b480      	push	{r7}
 8001c36:	b083      	sub	sp, #12
 8001c38:	af00      	add	r7, sp, #0
 8001c3a:	6078      	str	r0, [r7, #4]
 8001c3c:	bf00      	nop
 8001c3e:	370c      	adds	r7, #12
 8001c40:	46bd      	mov	sp, r7
 8001c42:	bc80      	pop	{r7}
 8001c44:	4770      	bx	lr

08001c46 <HAL_CAN_ErrorCallback>:
 8001c46:	b480      	push	{r7}
 8001c48:	b083      	sub	sp, #12
 8001c4a:	af00      	add	r7, sp, #0
 8001c4c:	6078      	str	r0, [r7, #4]
 8001c4e:	bf00      	nop
 8001c50:	370c      	adds	r7, #12
 8001c52:	46bd      	mov	sp, r7
 8001c54:	bc80      	pop	{r7}
 8001c56:	4770      	bx	lr

08001c58 <__NVIC_SetPriorityGrouping>:
 8001c58:	b480      	push	{r7}
 8001c5a:	b085      	sub	sp, #20
 8001c5c:	af00      	add	r7, sp, #0
 8001c5e:	6078      	str	r0, [r7, #4]
 8001c60:	687b      	ldr	r3, [r7, #4]
 8001c62:	f003 0307 	and.w	r3, r3, #7
 8001c66:	60fb      	str	r3, [r7, #12]
 8001c68:	4b0c      	ldr	r3, [pc, #48]	; (8001c9c <__NVIC_SetPriorityGrouping+0x44>)
 8001c6a:	68db      	ldr	r3, [r3, #12]
 8001c6c:	60bb      	str	r3, [r7, #8]
 8001c6e:	68ba      	ldr	r2, [r7, #8]
 8001c70:	f64f 03ff 	movw	r3, #63743	; 0xf8ff
 8001c74:	4013      	ands	r3, r2
 8001c76:	60bb      	str	r3, [r7, #8]
 8001c78:	68fb      	ldr	r3, [r7, #12]
 8001c7a:	021a      	lsls	r2, r3, #8
 8001c7c:	68bb      	ldr	r3, [r7, #8]
 8001c7e:	4313      	orrs	r3, r2
 8001c80:	f043 63bf 	orr.w	r3, r3, #100139008	; 0x5f80000
 8001c84:	f443 3300 	orr.w	r3, r3, #131072	; 0x20000
 8001c88:	60bb      	str	r3, [r7, #8]
 8001c8a:	4a04      	ldr	r2, [pc, #16]	; (8001c9c <__NVIC_SetPriorityGrouping+0x44>)
 8001c8c:	68bb      	ldr	r3, [r7, #8]
 8001c8e:	60d3      	str	r3, [r2, #12]
 8001c90:	bf00      	nop
 8001c92:	3714      	adds	r7, #20
 8001c94:	46bd      	mov	sp, r7
 8001c96:	bc80      	pop	{r7}
 8001c98:	4770      	bx	lr
 8001c9a:	bf00      	nop
 8001c9c:	e000ed00 	.word	0xe000ed00

08001ca0 <__NVIC_GetPriorityGrouping>:
 8001ca0:	b480      	push	{r7}
 8001ca2:	af00      	add	r7, sp, #0
 8001ca4:	4b04      	ldr	r3, [pc, #16]	; (8001cb8 <__NVIC_GetPriorityGrouping+0x18>)
 8001ca6:	68db      	ldr	r3, [r3, #12]
 8001ca8:	0a1b      	lsrs	r3, r3, #8
 8001caa:	f003 0307 	and.w	r3, r3, #7
 8001cae:	4618      	mov	r0, r3
 8001cb0:	46bd      	mov	sp, r7
 8001cb2:	bc80      	pop	{r7}
 8001cb4:	4770      	bx	lr
 8001cb6:	bf00      	nop
 8001cb8:	e000ed00 	.word	0xe000ed00

08001cbc <__NVIC_EnableIRQ>:
 8001cbc:	b480      	push	{r7}
 8001cbe:	b083      	sub	sp, #12
 8001cc0:	af00      	add	r7, sp, #0
 8001cc2:	4603      	mov	r3, r0
 8001cc4:	71fb      	strb	r3, [r7, #7]
 8001cc6:	f997 3007 	ldrsb.w	r3, [r7, #7]
 8001cca:	2b00      	cmp	r3, #0
 8001ccc:	db0b      	blt.n	8001ce6 <__NVIC_EnableIRQ+0x2a>
 8001cce:	79fb      	ldrb	r3, [r7, #7]
 8001cd0:	f003 021f 	and.w	r2, r3, #31
 8001cd4:	4906      	ldr	r1, [pc, #24]	; (8001cf0 <__NVIC_EnableIRQ+0x34>)
 8001cd6:	f997 3007 	ldrsb.w	r3, [r7, #7]
 8001cda:	095b      	lsrs	r3, r3, #5
 8001cdc:	2001      	movs	r0, #1
 8001cde:	fa00 f202 	lsl.w	r2, r0, r2
 8001ce2:	f841 2023 	str.w	r2, [r1, r3, lsl #2]
 8001ce6:	bf00      	nop
 8001ce8:	370c      	adds	r7, #12
 8001cea:	46bd      	mov	sp, r7
 8001cec:	bc80      	pop	{r7}
 8001cee:	4770      	bx	lr
 8001cf0:	e000e100 	.word	0xe000e100

08001cf4 <__NVIC_SetPriority>:
 8001cf4:	b480      	push	{r7}
 8001cf6:	b083      	sub	sp, #12
 8001cf8:	af00      	add	r7, sp, #0
 8001cfa:	4603      	mov	r3, r0
 8001cfc:	6039      	str	r1, [r7, #0]
 8001cfe:	71fb      	strb	r3, [r7, #7]
 8001d00:	f997 3007 	ldrsb.w	r3, [r7, #7]
 8001d04:	2b00      	cmp	r3, #0
 8001d06:	db0a      	blt.n	8001d1e <__NVIC_SetPriority+0x2a>
 8001d08:	683b      	ldr	r3, [r7, #0]
 8001d0a:	b2da      	uxtb	r2, r3
 8001d0c:	490c      	ldr	r1, [pc, #48]	; (8001d40 <__NVIC_SetPriority+0x4c>)
 8001d0e:	f997 3007 	ldrsb.w	r3, [r7, #7]
 8001d12:	0112      	lsls	r2, r2, #4
 8001d14:	b2d2      	uxtb	r2, r2
 8001d16:	440b      	add	r3, r1
 8001d18:	f883 2300 	strb.w	r2, [r3, #768]	; 0x300
 8001d1c:	e00a      	b.n	8001d34 <__NVIC_SetPriority+0x40>
 8001d1e:	683b      	ldr	r3, [r7, #0]
 8001d20:	b2da      	uxtb	r2, r3
 8001d22:	4908      	ldr	r1, [pc, #32]	; (8001d44 <__NVIC_SetPriority+0x50>)
 8001d24:	79fb      	ldrb	r3, [r7, #7]
 8001d26:	f003 030f 	and.w	r3, r3, #15
 8001d2a:	3b04      	subs	r3, #4
 8001d2c:	0112      	lsls	r2, r2, #4
 8001d2e:	b2d2      	uxtb	r2, r2
 8001d30:	440b      	add	r3, r1
 8001d32:	761a      	strb	r2, [r3, #24]
 8001d34:	bf00      	nop
 8001d36:	370c      	adds	r7, #12
 8001d38:	46bd      	mov	sp, r7
 8001d3a:	bc80      	pop	{r7}
 8001d3c:	4770      	bx	lr
 8001d3e:	bf00      	nop
 8001d40:	e000e100 	.word	0xe000e100
 8001d44:	e000ed00 	.word	0xe000ed00

08001d48 <NVIC_EncodePriority>:
 8001d48:	b480      	push	{r7}
 8001d4a:	b089      	sub	sp, #36	; 0x24
 8001d4c:	af00      	add	r7, sp, #0
 8001d4e:	60f8      	str	r0, [r7, #12]
 8001d50:	60b9      	str	r1, [r7, #8]
 8001d52:	607a      	str	r2, [r7, #4]
 8001d54:	68fb      	ldr	r3, [r7, #12]
 8001d56:	f003 0307 	and.w	r3, r3, #7
 8001d5a:	61fb      	str	r3, [r7, #28]
 8001d5c:	69fb      	ldr	r3, [r7, #28]
 8001d5e:	f1c3 0307 	rsb	r3, r3, #7
 8001d62:	2b04      	cmp	r3, #4
 8001d64:	bf28      	it	cs
 8001d66:	2304      	movcs	r3, #4
 8001d68:	61bb      	str	r3, [r7, #24]
 8001d6a:	69fb      	ldr	r3, [r7, #28]
 8001d6c:	3304      	adds	r3, #4
 8001d6e:	2b06      	cmp	r3, #6
 8001d70:	d902      	bls.n	8001d78 <NVIC_EncodePriority+0x30>
 8001d72:	69fb      	ldr	r3, [r7, #28]
 8001d74:	3b03      	subs	r3, #3
 8001d76:	e000      	b.n	8001d7a <NVIC_EncodePriority+0x32>
 8001d78:	2300      	movs	r3, #0
 8001d7a:	617b      	str	r3, [r7, #20]
 8001d7c:	f04f 32ff 	mov.w	r2, #4294967295	; 0xffffffff
 8001d80:	69bb      	ldr	r3, [r7, #24]
 8001d82:	fa02 f303 	lsl.w	r3, r2, r3
 8001d86:	43da      	mvns	r2, r3
 8001d88:	68bb      	ldr	r3, [r7, #8]
 8001d8a:	401a      	ands	r2, r3
 8001d8c:	697b      	ldr	r3, [r7, #20]
 8001d8e:	409a      	lsls	r2, r3
 8001d90:	f04f 31ff 	mov.w	r1, #4294967295	; 0xffffffff
 8001d94:	697b      	ldr	r3, [r7, #20]
 8001d96:	fa01 f303 	lsl.w	r3, r1, r3
 8001d9a:	43d9      	mvns	r1, r3
 8001d9c:	687b      	ldr	r3, [r7, #4]
 8001d9e:	400b      	ands	r3, r1
 8001da0:	4313      	orrs	r3, r2
 8001da2:	4618      	mov	r0, r3
 8001da4:	3724      	adds	r7, #36	; 0x24
 8001da6:	46bd      	mov	sp, r7
 8001da8:	bc80      	pop	{r7}
 8001daa:	4770      	bx	lr

08001dac <SysTick_Config>:
 8001dac:	b580      	push	{r7, lr}
 8001dae:	b082      	sub	sp, #8
 8001db0:	af00      	add	r7, sp, #0
 8001db2:	6078      	str	r0, [r7, #4]
 8001db4:	687b      	ldr	r3, [r7, #4]
 8001db6:	3b01      	subs	r3, #1
 8001db8:	f1b3 7f80 	cmp.w	r3, #16777216	; 0x1000000
 8001dbc:	d301      	bcc.n	8001dc2 <SysTick_Config+0x16>
 8001dbe:	2301      	movs	r3, #1
 8001dc0:	e00f      	b.n	8001de2 <SysTick_Config+0x36>
 8001dc2:	4a0a      	ldr	r2, [pc, #40]	; (8001dec <SysTick_Config+0x40>)
 8001dc4:	687b      	ldr	r3, [r7, #4]
 8001dc6:	3b01      	subs	r3, #1
 8001dc8:	6053      	str	r3, [r2, #4]
 8001dca:	210f      	movs	r1, #15
 8001dcc:	f04f 30ff 	mov.w	r0, #4294967295	; 0xffffffff
 8001dd0:	f7ff ff90 	bl	8001cf4 <__NVIC_SetPriority>
 8001dd4:	4b05      	ldr	r3, [pc, #20]	; (8001dec <SysTick_Config+0x40>)
 8001dd6:	2200      	movs	r2, #0
 8001dd8:	609a      	str	r2, [r3, #8]
 8001dda:	4b04      	ldr	r3, [pc, #16]	; (8001dec <SysTick_Config+0x40>)
 8001ddc:	2207      	movs	r2, #7
 8001dde:	601a      	str	r2, [r3, #0]
 8001de0:	2300      	movs	r3, #0
 8001de2:	4618      	mov	r0, r3
 8001de4:	3708      	adds	r7, #8
 8001de6:	46bd      	mov	sp, r7
 8001de8:	bd80      	pop	{r7, pc}
 8001dea:	bf00      	nop
 8001dec:	e000e010 	.word	0xe000e010

08001df0 <HAL_NVIC_SetPriorityGrouping>:
 8001df0:	b580      	push	{r7, lr}
 8001df2:	b082      	sub	sp, #8
 8001df4:	af00      	add	r7, sp, #0
 8001df6:	6078      	str	r0, [r7, #4]
 8001df8:	6878      	ldr	r0, [r7, #4]
 8001dfa:	f7ff ff2d 	bl	8001c58 <__NVIC_SetPriorityGrouping>
 8001dfe:	bf00      	nop
 8001e00:	3708      	adds	r7, #8
 8001e02:	46bd      	mov	sp, r7
 8001e04:	bd80      	pop	{r7, pc}

08001e06 <HAL_NVIC_SetPriority>:
 8001e06:	b580      	push	{r7, lr}
 8001e08:	b086      	sub	sp, #24
 8001e0a:	af00      	add	r7, sp, #0
 8001e0c:	4603      	mov	r3, r0
 8001e0e:	60b9      	str	r1, [r7, #8]
 8001e10:	607a      	str	r2, [r7, #4]
 8001e12:	73fb      	strb	r3, [r7, #15]
 8001e14:	2300      	movs	r3, #0
 8001e16:	617b      	str	r3, [r7, #20]
 8001e18:	f7ff ff42 	bl	8001ca0 <__NVIC_GetPriorityGrouping>
 8001e1c:	6178      	str	r0, [r7, #20]
 8001e1e:	687a      	ldr	r2, [r7, #4]
 8001e20:	68b9      	ldr	r1, [r7, #8]
 8001e22:	6978      	ldr	r0, [r7, #20]
 8001e24:	f7ff ff90 	bl	8001d48 <NVIC_EncodePriority>
 8001e28:	4602      	mov	r2, r0
 8001e2a:	f997 300f 	ldrsb.w	r3, [r7, #15]
 8001e2e:	4611      	mov	r1, r2
 8001e30:	4618      	mov	r0, r3
 8001e32:	f7ff ff5f 	bl	8001cf4 <__NVIC_SetPriority>
 8001e36:	bf00      	nop
 8001e38:	3718      	adds	r7, #24
 8001e3a:	46bd      	mov	sp, r7
 8001e3c:	bd80      	pop	{r7, pc}

08001e3e <HAL_NVIC_EnableIRQ>:
 8001e3e:	b580      	push	{r7, lr}
 8001e40:	b082      	sub	sp, #8
 8001e42:	af00      	add	r7, sp, #0
 8001e44:	4603      	mov	r3, r0
 8001e46:	71fb      	strb	r3, [r7, #7]
 8001e48:	f997 3007 	ldrsb.w	r3, [r7, #7]
 8001e4c:	4618      	mov	r0, r3
 8001e4e:	f7ff ff35 	bl	8001cbc <__NVIC_EnableIRQ>
 8001e52:	bf00      	nop
 8001e54:	3708      	adds	r7, #8
 8001e56:	46bd      	mov	sp, r7
 8001e58:	bd80      	pop	{r7, pc}

08001e5a <HAL_SYSTICK_Config>:
 8001e5a:	b580      	push	{r7, lr}
 8001e5c:	b082      	sub	sp, #8
 8001e5e:	af00      	add	r7, sp, #0
 8001e60:	6078      	str	r0, [r7, #4]
 8001e62:	6878      	ldr	r0, [r7, #4]
 8001e64:	f7ff ffa2 	bl	8001dac <SysTick_Config>
 8001e68:	4603      	mov	r3, r0
 8001e6a:	4618      	mov	r0, r3
 8001e6c:	3708      	adds	r7, #8
 8001e6e:	46bd      	mov	sp, r7
 8001e70:	bd80      	pop	{r7, pc}
	...

08001e74 <HAL_GPIO_Init>:
 8001e74:	b480      	push	{r7}
 8001e76:	b08b      	sub	sp, #44	; 0x2c
 8001e78:	af00      	add	r7, sp, #0
 8001e7a:	6078      	str	r0, [r7, #4]
 8001e7c:	6039      	str	r1, [r7, #0]
 8001e7e:	2300      	movs	r3, #0
 8001e80:	627b      	str	r3, [r7, #36]	; 0x24
 8001e82:	2300      	movs	r3, #0
 8001e84:	623b      	str	r3, [r7, #32]
 8001e86:	e169      	b.n	800215c <HAL_GPIO_Init+0x2e8>
 8001e88:	2201      	movs	r2, #1
 8001e8a:	6a7b      	ldr	r3, [r7, #36]	; 0x24
 8001e8c:	fa02 f303 	lsl.w	r3, r2, r3
 8001e90:	61fb      	str	r3, [r7, #28]
 8001e92:	683b      	ldr	r3, [r7, #0]
 8001e94:	681b      	ldr	r3, [r3, #0]
 8001e96:	69fa      	ldr	r2, [r7, #28]
 8001e98:	4013      	ands	r3, r2
 8001e9a:	61bb      	str	r3, [r7, #24]
 8001e9c:	69ba      	ldr	r2, [r7, #24]
 8001e9e:	69fb      	ldr	r3, [r7, #28]
 8001ea0:	429a      	cmp	r2, r3
 8001ea2:	f040 8158 	bne.w	8002156 <HAL_GPIO_Init+0x2e2>
 8001ea6:	683b      	ldr	r3, [r7, #0]
 8001ea8:	685b      	ldr	r3, [r3, #4]
 8001eaa:	4a9a      	ldr	r2, [pc, #616]	; (8002114 <HAL_GPIO_Init+0x2a0>)
 8001eac:	4293      	cmp	r3, r2
 8001eae:	d05e      	beq.n	8001f6e <HAL_GPIO_Init+0xfa>
 8001eb0:	4a98      	ldr	r2, [pc, #608]	; (8002114 <HAL_GPIO_Init+0x2a0>)
 8001eb2:	4293      	cmp	r3, r2
 8001eb4:	d875      	bhi.n	8001fa2 <HAL_GPIO_Init+0x12e>
 8001eb6:	4a98      	ldr	r2, [pc, #608]	; (8002118 <HAL_GPIO_Init+0x2a4>)
 8001eb8:	4293      	cmp	r3, r2
 8001eba:	d058      	beq.n	8001f6e <HAL_GPIO_Init+0xfa>
 8001ebc:	4a96      	ldr	r2, [pc, #600]	; (8002118 <HAL_GPIO_Init+0x2a4>)
 8001ebe:	4293      	cmp	r3, r2
 8001ec0:	d86f      	bhi.n	8001fa2 <HAL_GPIO_Init+0x12e>
 8001ec2:	4a96      	ldr	r2, [pc, #600]	; (800211c <HAL_GPIO_Init+0x2a8>)
 8001ec4:	4293      	cmp	r3, r2
 8001ec6:	d052      	beq.n	8001f6e <HAL_GPIO_Init+0xfa>
 8001ec8:	4a94      	ldr	r2, [pc, #592]	; (800211c <HAL_GPIO_Init+0x2a8>)
 8001eca:	4293      	cmp	r3, r2
 8001ecc:	d869      	bhi.n	8001fa2 <HAL_GPIO_Init+0x12e>
 8001ece:	4a94      	ldr	r2, [pc, #592]	; (8002120 <HAL_GPIO_Init+0x2ac>)
 8001ed0:	4293      	cmp	r3, r2
 8001ed2:	d04c      	beq.n	8001f6e <HAL_GPIO_Init+0xfa>
 8001ed4:	4a92      	ldr	r2, [pc, #584]	; (8002120 <HAL_GPIO_Init+0x2ac>)
 8001ed6:	4293      	cmp	r3, r2
 8001ed8:	d863      	bhi.n	8001fa2 <HAL_GPIO_Init+0x12e>
 8001eda:	4a92      	ldr	r2, [pc, #584]	; (8002124 <HAL_GPIO_Init+0x2b0>)
 8001edc:	4293      	cmp	r3, r2
 8001ede:	d046      	beq.n	8001f6e <HAL_GPIO_Init+0xfa>
 8001ee0:	4a90      	ldr	r2, [pc, #576]	; (8002124 <HAL_GPIO_Init+0x2b0>)
 8001ee2:	4293      	cmp	r3, r2
 8001ee4:	d85d      	bhi.n	8001fa2 <HAL_GPIO_Init+0x12e>
 8001ee6:	2b12      	cmp	r3, #18
 8001ee8:	d82a      	bhi.n	8001f40 <HAL_GPIO_Init+0xcc>
 8001eea:	2b12      	cmp	r3, #18
 8001eec:	d859      	bhi.n	8001fa2 <HAL_GPIO_Init+0x12e>
 8001eee:	a201      	add	r2, pc, #4	; (adr r2, 8001ef4 <HAL_GPIO_Init+0x80>)
 8001ef0:	f852 f023 	ldr.w	pc, [r2, r3, lsl #2]
 8001ef4:	08001f6f 	.word	0x08001f6f
 8001ef8:	08001f49 	.word	0x08001f49
 8001efc:	08001f5b 	.word	0x08001f5b
 8001f00:	08001f9d 	.word	0x08001f9d
 8001f04:	08001fa3 	.word	0x08001fa3
 8001f08:	08001fa3 	.word	0x08001fa3
 8001f0c:	08001fa3 	.word	0x08001fa3
 8001f10:	08001fa3 	.word	0x08001fa3
 8001f14:	08001fa3 	.word	0x08001fa3
 8001f18:	08001fa3 	.word	0x08001fa3
 8001f1c:	08001fa3 	.word	0x08001fa3
 8001f20:	08001fa3 	.word	0x08001fa3
 8001f24:	08001fa3 	.word	0x08001fa3
 8001f28:	08001fa3 	.word	0x08001fa3
 8001f2c:	08001fa3 	.word	0x08001fa3
 8001f30:	08001fa3 	.word	0x08001fa3
 8001f34:	08001fa3 	.word	0x08001fa3
 8001f38:	08001f51 	.word	0x08001f51
 8001f3c:	08001f65 	.word	0x08001f65
 8001f40:	4a79      	ldr	r2, [pc, #484]	; (8002128 <HAL_GPIO_Init+0x2b4>)
 8001f42:	4293      	cmp	r3, r2
 8001f44:	d013      	beq.n	8001f6e <HAL_GPIO_Init+0xfa>
 8001f46:	e02c      	b.n	8001fa2 <HAL_GPIO_Init+0x12e>
 8001f48:	683b      	ldr	r3, [r7, #0]
 8001f4a:	68db      	ldr	r3, [r3, #12]
 8001f4c:	623b      	str	r3, [r7, #32]
 8001f4e:	e029      	b.n	8001fa4 <HAL_GPIO_Init+0x130>
 8001f50:	683b      	ldr	r3, [r7, #0]
 8001f52:	68db      	ldr	r3, [r3, #12]
 8001f54:	3304      	adds	r3, #4
 8001f56:	623b      	str	r3, [r7, #32]
 8001f58:	e024      	b.n	8001fa4 <HAL_GPIO_Init+0x130>
 8001f5a:	683b      	ldr	r3, [r7, #0]
 8001f5c:	68db      	ldr	r3, [r3, #12]
 8001f5e:	3308      	adds	r3, #8
 8001f60:	623b      	str	r3, [r7, #32]
 8001f62:	e01f      	b.n	8001fa4 <HAL_GPIO_Init+0x130>
 8001f64:	683b      	ldr	r3, [r7, #0]
 8001f66:	68db      	ldr	r3, [r3, #12]
 8001f68:	330c      	adds	r3, #12
 8001f6a:	623b      	str	r3, [r7, #32]
 8001f6c:	e01a      	b.n	8001fa4 <HAL_GPIO_Init+0x130>
 8001f6e:	683b      	ldr	r3, [r7, #0]
 8001f70:	689b      	ldr	r3, [r3, #8]
 8001f72:	2b00      	cmp	r3, #0
 8001f74:	d102      	bne.n	8001f7c <HAL_GPIO_Init+0x108>
 8001f76:	2304      	movs	r3, #4
 8001f78:	623b      	str	r3, [r7, #32]
 8001f7a:	e013      	b.n	8001fa4 <HAL_GPIO_Init+0x130>
 8001f7c:	683b      	ldr	r3, [r7, #0]
 8001f7e:	689b      	ldr	r3, [r3, #8]
 8001f80:	2b01      	cmp	r3, #1
 8001f82:	d105      	bne.n	8001f90 <HAL_GPIO_Init+0x11c>
 8001f84:	2308      	movs	r3, #8
 8001f86:	623b      	str	r3, [r7, #32]
 8001f88:	687b      	ldr	r3, [r7, #4]
 8001f8a:	69fa      	ldr	r2, [r7, #28]
 8001f8c:	611a      	str	r2, [r3, #16]
 8001f8e:	e009      	b.n	8001fa4 <HAL_GPIO_Init+0x130>
 8001f90:	2308      	movs	r3, #8
 8001f92:	623b      	str	r3, [r7, #32]
 8001f94:	687b      	ldr	r3, [r7, #4]
 8001f96:	69fa      	ldr	r2, [r7, #28]
 8001f98:	615a      	str	r2, [r3, #20]
 8001f9a:	e003      	b.n	8001fa4 <HAL_GPIO_Init+0x130>
 8001f9c:	2300      	movs	r3, #0
 8001f9e:	623b      	str	r3, [r7, #32]
 8001fa0:	e000      	b.n	8001fa4 <HAL_GPIO_Init+0x130>
 8001fa2:	bf00      	nop
 8001fa4:	69bb      	ldr	r3, [r7, #24]
 8001fa6:	2bff      	cmp	r3, #255	; 0xff
 8001fa8:	d801      	bhi.n	8001fae <HAL_GPIO_Init+0x13a>
 8001faa:	687b      	ldr	r3, [r7, #4]
 8001fac:	e001      	b.n	8001fb2 <HAL_GPIO_Init+0x13e>
 8001fae:	687b      	ldr	r3, [r7, #4]
 8001fb0:	3304      	adds	r3, #4
 8001fb2:	617b      	str	r3, [r7, #20]
 8001fb4:	69bb      	ldr	r3, [r7, #24]
 8001fb6:	2bff      	cmp	r3, #255	; 0xff
 8001fb8:	d802      	bhi.n	8001fc0 <HAL_GPIO_Init+0x14c>
 8001fba:	6a7b      	ldr	r3, [r7, #36]	; 0x24
 8001fbc:	009b      	lsls	r3, r3, #2
 8001fbe:	e002      	b.n	8001fc6 <HAL_GPIO_Init+0x152>
 8001fc0:	6a7b      	ldr	r3, [r7, #36]	; 0x24
 8001fc2:	3b08      	subs	r3, #8
 8001fc4:	009b      	lsls	r3, r3, #2
 8001fc6:	613b      	str	r3, [r7, #16]
 8001fc8:	697b      	ldr	r3, [r7, #20]
 8001fca:	681a      	ldr	r2, [r3, #0]
 8001fcc:	210f      	movs	r1, #15
 8001fce:	693b      	ldr	r3, [r7, #16]
 8001fd0:	fa01 f303 	lsl.w	r3, r1, r3
 8001fd4:	43db      	mvns	r3, r3
 8001fd6:	401a      	ands	r2, r3
 8001fd8:	6a39      	ldr	r1, [r7, #32]
 8001fda:	693b      	ldr	r3, [r7, #16]
 8001fdc:	fa01 f303 	lsl.w	r3, r1, r3
 8001fe0:	431a      	orrs	r2, r3
 8001fe2:	697b      	ldr	r3, [r7, #20]
 8001fe4:	601a      	str	r2, [r3, #0]
 8001fe6:	683b      	ldr	r3, [r7, #0]
 8001fe8:	685b      	ldr	r3, [r3, #4]
 8001fea:	f003 5380 	and.w	r3, r3, #268435456	; 0x10000000
 8001fee:	2b00      	cmp	r3, #0
 8001ff0:	f000 80b1 	beq.w	8002156 <HAL_GPIO_Init+0x2e2>
 8001ff4:	4b4d      	ldr	r3, [pc, #308]	; (800212c <HAL_GPIO_Init+0x2b8>)
 8001ff6:	699b      	ldr	r3, [r3, #24]
 8001ff8:	4a4c      	ldr	r2, [pc, #304]	; (800212c <HAL_GPIO_Init+0x2b8>)
 8001ffa:	f043 0301 	orr.w	r3, r3, #1
 8001ffe:	6193      	str	r3, [r2, #24]
 8002000:	4b4a      	ldr	r3, [pc, #296]	; (800212c <HAL_GPIO_Init+0x2b8>)
 8002002:	699b      	ldr	r3, [r3, #24]
 8002004:	f003 0301 	and.w	r3, r3, #1
 8002008:	60bb      	str	r3, [r7, #8]
 800200a:	68bb      	ldr	r3, [r7, #8]
 800200c:	4a48      	ldr	r2, [pc, #288]	; (8002130 <HAL_GPIO_Init+0x2bc>)
 800200e:	6a7b      	ldr	r3, [r7, #36]	; 0x24
 8002010:	089b      	lsrs	r3, r3, #2
 8002012:	3302      	adds	r3, #2
 8002014:	f852 3023 	ldr.w	r3, [r2, r3, lsl #2]
 8002018:	60fb      	str	r3, [r7, #12]
 800201a:	6a7b      	ldr	r3, [r7, #36]	; 0x24
 800201c:	f003 0303 	and.w	r3, r3, #3
 8002020:	009b      	lsls	r3, r3, #2
 8002022:	220f      	movs	r2, #15
 8002024:	fa02 f303 	lsl.w	r3, r2, r3
 8002028:	43db      	mvns	r3, r3
 800202a:	68fa      	ldr	r2, [r7, #12]
 800202c:	4013      	ands	r3, r2
 800202e:	60fb      	str	r3, [r7, #12]
 8002030:	687b      	ldr	r3, [r7, #4]
 8002032:	4a40      	ldr	r2, [pc, #256]	; (8002134 <HAL_GPIO_Init+0x2c0>)
 8002034:	4293      	cmp	r3, r2
 8002036:	d013      	beq.n	8002060 <HAL_GPIO_Init+0x1ec>
 8002038:	687b      	ldr	r3, [r7, #4]
 800203a:	4a3f      	ldr	r2, [pc, #252]	; (8002138 <HAL_GPIO_Init+0x2c4>)
 800203c:	4293      	cmp	r3, r2
 800203e:	d00d      	beq.n	800205c <HAL_GPIO_Init+0x1e8>
 8002040:	687b      	ldr	r3, [r7, #4]
 8002042:	4a3e      	ldr	r2, [pc, #248]	; (800213c <HAL_GPIO_Init+0x2c8>)
 8002044:	4293      	cmp	r3, r2
 8002046:	d007      	beq.n	8002058 <HAL_GPIO_Init+0x1e4>
 8002048:	687b      	ldr	r3, [r7, #4]
 800204a:	4a3d      	ldr	r2, [pc, #244]	; (8002140 <HAL_GPIO_Init+0x2cc>)
 800204c:	4293      	cmp	r3, r2
 800204e:	d101      	bne.n	8002054 <HAL_GPIO_Init+0x1e0>
 8002050:	2303      	movs	r3, #3
 8002052:	e006      	b.n	8002062 <HAL_GPIO_Init+0x1ee>
 8002054:	2304      	movs	r3, #4
 8002056:	e004      	b.n	8002062 <HAL_GPIO_Init+0x1ee>
 8002058:	2302      	movs	r3, #2
 800205a:	e002      	b.n	8002062 <HAL_GPIO_Init+0x1ee>
 800205c:	2301      	movs	r3, #1
 800205e:	e000      	b.n	8002062 <HAL_GPIO_Init+0x1ee>
 8002060:	2300      	movs	r3, #0
 8002062:	6a7a      	ldr	r2, [r7, #36]	; 0x24
 8002064:	f002 0203 	and.w	r2, r2, #3
 8002068:	0092      	lsls	r2, r2, #2
 800206a:	4093      	lsls	r3, r2
 800206c:	68fa      	ldr	r2, [r7, #12]
 800206e:	4313      	orrs	r3, r2
 8002070:	60fb      	str	r3, [r7, #12]
 8002072:	492f      	ldr	r1, [pc, #188]	; (8002130 <HAL_GPIO_Init+0x2bc>)
 8002074:	6a7b      	ldr	r3, [r7, #36]	; 0x24
 8002076:	089b      	lsrs	r3, r3, #2
 8002078:	3302      	adds	r3, #2
 800207a:	68fa      	ldr	r2, [r7, #12]
 800207c:	f841 2023 	str.w	r2, [r1, r3, lsl #2]
 8002080:	683b      	ldr	r3, [r7, #0]
 8002082:	685b      	ldr	r3, [r3, #4]
 8002084:	f403 1380 	and.w	r3, r3, #1048576	; 0x100000
 8002088:	2b00      	cmp	r3, #0
 800208a:	d006      	beq.n	800209a <HAL_GPIO_Init+0x226>
 800208c:	4b2d      	ldr	r3, [pc, #180]	; (8002144 <HAL_GPIO_Init+0x2d0>)
 800208e:	689a      	ldr	r2, [r3, #8]
 8002090:	492c      	ldr	r1, [pc, #176]	; (8002144 <HAL_GPIO_Init+0x2d0>)
 8002092:	69bb      	ldr	r3, [r7, #24]
 8002094:	4313      	orrs	r3, r2
 8002096:	608b      	str	r3, [r1, #8]
 8002098:	e006      	b.n	80020a8 <HAL_GPIO_Init+0x234>
 800209a:	4b2a      	ldr	r3, [pc, #168]	; (8002144 <HAL_GPIO_Init+0x2d0>)
 800209c:	689a      	ldr	r2, [r3, #8]
 800209e:	69bb      	ldr	r3, [r7, #24]
 80020a0:	43db      	mvns	r3, r3
 80020a2:	4928      	ldr	r1, [pc, #160]	; (8002144 <HAL_GPIO_Init+0x2d0>)
 80020a4:	4013      	ands	r3, r2
 80020a6:	608b      	str	r3, [r1, #8]
 80020a8:	683b      	ldr	r3, [r7, #0]
 80020aa:	685b      	ldr	r3, [r3, #4]
 80020ac:	f403 1300 	and.w	r3, r3, #2097152	; 0x200000
 80020b0:	2b00      	cmp	r3, #0
 80020b2:	d006      	beq.n	80020c2 <HAL_GPIO_Init+0x24e>
 80020b4:	4b23      	ldr	r3, [pc, #140]	; (8002144 <HAL_GPIO_Init+0x2d0>)
 80020b6:	68da      	ldr	r2, [r3, #12]
 80020b8:	4922      	ldr	r1, [pc, #136]	; (8002144 <HAL_GPIO_Init+0x2d0>)
 80020ba:	69bb      	ldr	r3, [r7, #24]
 80020bc:	4313      	orrs	r3, r2
 80020be:	60cb      	str	r3, [r1, #12]
 80020c0:	e006      	b.n	80020d0 <HAL_GPIO_Init+0x25c>
 80020c2:	4b20      	ldr	r3, [pc, #128]	; (8002144 <HAL_GPIO_Init+0x2d0>)
 80020c4:	68da      	ldr	r2, [r3, #12]
 80020c6:	69bb      	ldr	r3, [r7, #24]
 80020c8:	43db      	mvns	r3, r3
 80020ca:	491e      	ldr	r1, [pc, #120]	; (8002144 <HAL_GPIO_Init+0x2d0>)
 80020cc:	4013      	ands	r3, r2
 80020ce:	60cb      	str	r3, [r1, #12]
 80020d0:	683b      	ldr	r3, [r7, #0]
 80020d2:	685b      	ldr	r3, [r3, #4]
 80020d4:	f403 3300 	and.w	r3, r3, #131072	; 0x20000
 80020d8:	2b00      	cmp	r3, #0
 80020da:	d006      	beq.n	80020ea <HAL_GPIO_Init+0x276>
 80020dc:	4b19      	ldr	r3, [pc, #100]	; (8002144 <HAL_GPIO_Init+0x2d0>)
 80020de:	685a      	ldr	r2, [r3, #4]
 80020e0:	4918      	ldr	r1, [pc, #96]	; (8002144 <HAL_GPIO_Init+0x2d0>)
 80020e2:	69bb      	ldr	r3, [r7, #24]
 80020e4:	4313      	orrs	r3, r2
 80020e6:	604b      	str	r3, [r1, #4]
 80020e8:	e006      	b.n	80020f8 <HAL_GPIO_Init+0x284>
 80020ea:	4b16      	ldr	r3, [pc, #88]	; (8002144 <HAL_GPIO_Init+0x2d0>)
 80020ec:	685a      	ldr	r2, [r3, #4]
 80020ee:	69bb      	ldr	r3, [r7, #24]
 80020f0:	43db      	mvns	r3, r3
 80020f2:	4914      	ldr	r1, [pc, #80]	; (8002144 <HAL_GPIO_Init+0x2d0>)
 80020f4:	4013      	ands	r3, r2
 80020f6:	604b      	str	r3, [r1, #4]
 80020f8:	683b      	ldr	r3, [r7, #0]
 80020fa:	685b      	ldr	r3, [r3, #4]
 80020fc:	f403 3380 	and.w	r3, r3, #65536	; 0x10000
 8002100:	2b00      	cmp	r3, #0
 8002102:	d021      	beq.n	8002148 <HAL_GPIO_Init+0x2d4>
 8002104:	4b0f      	ldr	r3, [pc, #60]	; (8002144 <HAL_GPIO_Init+0x2d0>)
 8002106:	681a      	ldr	r2, [r3, #0]
 8002108:	490e      	ldr	r1, [pc, #56]	; (8002144 <HAL_GPIO_Init+0x2d0>)
 800210a:	69bb      	ldr	r3, [r7, #24]
 800210c:	4313      	orrs	r3, r2
 800210e:	600b      	str	r3, [r1, #0]
 8002110:	e021      	b.n	8002156 <HAL_GPIO_Init+0x2e2>
 8002112:	bf00      	nop
 8002114:	10320000 	.word	0x10320000
 8002118:	10310000 	.word	0x10310000
 800211c:	10220000 	.word	0x10220000
 8002120:	10210000 	.word	0x10210000
 8002124:	10120000 	.word	0x10120000
 8002128:	10110000 	.word	0x10110000
 800212c:	40021000 	.word	0x40021000
 8002130:	40010000 	.word	0x40010000
 8002134:	40010800 	.word	0x40010800
 8002138:	40010c00 	.word	0x40010c00
 800213c:	40011000 	.word	0x40011000
 8002140:	40011400 	.word	0x40011400
 8002144:	40010400 	.word	0x40010400
 8002148:	4b0b      	ldr	r3, [pc, #44]	; (8002178 <HAL_GPIO_Init+0x304>)
 800214a:	681a      	ldr	r2, [r3, #0]
 800214c:	69bb      	ldr	r3, [r7, #24]
 800214e:	43db      	mvns	r3, r3
 8002150:	4909      	ldr	r1, [pc, #36]	; (8002178 <HAL_GPIO_Init+0x304>)
 8002152:	4013      	ands	r3, r2
 8002154:	600b      	str	r3, [r1, #0]
 8002156:	6a7b      	ldr	r3, [r7, #36]	; 0x24
 8002158:	3301      	adds	r3, #1
 800215a:	627b      	str	r3, [r7, #36]	; 0x24
 800215c:	683b      	ldr	r3, [r7, #0]
 800215e:	681a      	ldr	r2, [r3, #0]
 8002160:	6a7b      	ldr	r3, [r7, #36]	; 0x24
 8002162:	fa22 f303 	lsr.w	r3, r2, r3
 8002166:	2b00      	cmp	r3, #0
 8002168:	f47f ae8e 	bne.w	8001e88 <HAL_GPIO_Init+0x14>
 800216c:	bf00      	nop
 800216e:	bf00      	nop
 8002170:	372c      	adds	r7, #44	; 0x2c
 8002172:	46bd      	mov	sp, r7
 8002174:	bc80      	pop	{r7}
 8002176:	4770      	bx	lr
 8002178:	40010400 	.word	0x40010400

0800217c <HAL_GPIO_WritePin>:
 800217c:	b480      	push	{r7}
 800217e:	b083      	sub	sp, #12
 8002180:	af00      	add	r7, sp, #0
 8002182:	6078      	str	r0, [r7, #4]
 8002184:	460b      	mov	r3, r1
 8002186:	807b      	strh	r3, [r7, #2]
 8002188:	4613      	mov	r3, r2
 800218a:	707b      	strb	r3, [r7, #1]
 800218c:	787b      	ldrb	r3, [r7, #1]
 800218e:	2b00      	cmp	r3, #0
 8002190:	d003      	beq.n	800219a <HAL_GPIO_WritePin+0x1e>
 8002192:	887a      	ldrh	r2, [r7, #2]
 8002194:	687b      	ldr	r3, [r7, #4]
 8002196:	611a      	str	r2, [r3, #16]
 8002198:	e003      	b.n	80021a2 <HAL_GPIO_WritePin+0x26>
 800219a:	887b      	ldrh	r3, [r7, #2]
 800219c:	041a      	lsls	r2, r3, #16
 800219e:	687b      	ldr	r3, [r7, #4]
 80021a0:	611a      	str	r2, [r3, #16]
 80021a2:	bf00      	nop
 80021a4:	370c      	adds	r7, #12
 80021a6:	46bd      	mov	sp, r7
 80021a8:	bc80      	pop	{r7}
 80021aa:	4770      	bx	lr

080021ac <HAL_GPIO_TogglePin>:
 80021ac:	b480      	push	{r7}
 80021ae:	b085      	sub	sp, #20
 80021b0:	af00      	add	r7, sp, #0
 80021b2:	6078      	str	r0, [r7, #4]
 80021b4:	460b      	mov	r3, r1
 80021b6:	807b      	strh	r3, [r7, #2]
 80021b8:	687b      	ldr	r3, [r7, #4]
 80021ba:	68db      	ldr	r3, [r3, #12]
 80021bc:	60fb      	str	r3, [r7, #12]
 80021be:	887a      	ldrh	r2, [r7, #2]
 80021c0:	68fb      	ldr	r3, [r7, #12]
 80021c2:	4013      	ands	r3, r2
 80021c4:	041a      	lsls	r2, r3, #16
 80021c6:	68fb      	ldr	r3, [r7, #12]
 80021c8:	43d9      	mvns	r1, r3
 80021ca:	887b      	ldrh	r3, [r7, #2]
 80021cc:	400b      	ands	r3, r1
 80021ce:	431a      	orrs	r2, r3
 80021d0:	687b      	ldr	r3, [r7, #4]
 80021d2:	611a      	str	r2, [r3, #16]
 80021d4:	bf00      	nop
 80021d6:	3714      	adds	r7, #20
 80021d8:	46bd      	mov	sp, r7
 80021da:	bc80      	pop	{r7}
 80021dc:	4770      	bx	lr
	...

080021e0 <HAL_I2C_Init>:
 80021e0:	b580      	push	{r7, lr}
 80021e2:	b084      	sub	sp, #16
 80021e4:	af00      	add	r7, sp, #0
 80021e6:	6078      	str	r0, [r7, #4]
 80021e8:	687b      	ldr	r3, [r7, #4]
 80021ea:	2b00      	cmp	r3, #0
 80021ec:	d101      	bne.n	80021f2 <HAL_I2C_Init+0x12>
 80021ee:	2301      	movs	r3, #1
 80021f0:	e12b      	b.n	800244a <HAL_I2C_Init+0x26a>
 80021f2:	687b      	ldr	r3, [r7, #4]
 80021f4:	f893 303d 	ldrb.w	r3, [r3, #61]	; 0x3d
 80021f8:	b2db      	uxtb	r3, r3
 80021fa:	2b00      	cmp	r3, #0
 80021fc:	d106      	bne.n	800220c <HAL_I2C_Init+0x2c>
 80021fe:	687b      	ldr	r3, [r7, #4]
 8002200:	2200      	movs	r2, #0
 8002202:	f883 203c 	strb.w	r2, [r3, #60]	; 0x3c
 8002206:	6878      	ldr	r0, [r7, #4]
 8002208:	f7fe fd5a 	bl	8000cc0 <HAL_I2C_MspInit>
 800220c:	687b      	ldr	r3, [r7, #4]
 800220e:	2224      	movs	r2, #36	; 0x24
 8002210:	f883 203d 	strb.w	r2, [r3, #61]	; 0x3d
 8002214:	687b      	ldr	r3, [r7, #4]
 8002216:	681b      	ldr	r3, [r3, #0]
 8002218:	681a      	ldr	r2, [r3, #0]
 800221a:	687b      	ldr	r3, [r7, #4]
 800221c:	681b      	ldr	r3, [r3, #0]
 800221e:	f022 0201 	bic.w	r2, r2, #1
 8002222:	601a      	str	r2, [r3, #0]
 8002224:	687b      	ldr	r3, [r7, #4]
 8002226:	681b      	ldr	r3, [r3, #0]
 8002228:	681a      	ldr	r2, [r3, #0]
 800222a:	687b      	ldr	r3, [r7, #4]
 800222c:	681b      	ldr	r3, [r3, #0]
 800222e:	f442 4200 	orr.w	r2, r2, #32768	; 0x8000
 8002232:	601a      	str	r2, [r3, #0]
 8002234:	687b      	ldr	r3, [r7, #4]
 8002236:	681b      	ldr	r3, [r3, #0]
 8002238:	681a      	ldr	r2, [r3, #0]
 800223a:	687b      	ldr	r3, [r7, #4]
 800223c:	681b      	ldr	r3, [r3, #0]
 800223e:	f422 4200 	bic.w	r2, r2, #32768	; 0x8000
 8002242:	601a      	str	r2, [r3, #0]
 8002244:	f001 f960 	bl	8003508 <HAL_RCC_GetPCLK1Freq>
 8002248:	60f8      	str	r0, [r7, #12]
 800224a:	687b      	ldr	r3, [r7, #4]
 800224c:	685b      	ldr	r3, [r3, #4]
 800224e:	4a81      	ldr	r2, [pc, #516]	; (8002454 <HAL_I2C_Init+0x274>)
 8002250:	4293      	cmp	r3, r2
 8002252:	d807      	bhi.n	8002264 <HAL_I2C_Init+0x84>
 8002254:	68fb      	ldr	r3, [r7, #12]
 8002256:	4a80      	ldr	r2, [pc, #512]	; (8002458 <HAL_I2C_Init+0x278>)
 8002258:	4293      	cmp	r3, r2
 800225a:	bf94      	ite	ls
 800225c:	2301      	movls	r3, #1
 800225e:	2300      	movhi	r3, #0
 8002260:	b2db      	uxtb	r3, r3
 8002262:	e006      	b.n	8002272 <HAL_I2C_Init+0x92>
 8002264:	68fb      	ldr	r3, [r7, #12]
 8002266:	4a7d      	ldr	r2, [pc, #500]	; (800245c <HAL_I2C_Init+0x27c>)
 8002268:	4293      	cmp	r3, r2
 800226a:	bf94      	ite	ls
 800226c:	2301      	movls	r3, #1
 800226e:	2300      	movhi	r3, #0
 8002270:	b2db      	uxtb	r3, r3
 8002272:	2b00      	cmp	r3, #0
 8002274:	d001      	beq.n	800227a <HAL_I2C_Init+0x9a>
 8002276:	2301      	movs	r3, #1
 8002278:	e0e7      	b.n	800244a <HAL_I2C_Init+0x26a>
 800227a:	68fb      	ldr	r3, [r7, #12]
 800227c:	4a78      	ldr	r2, [pc, #480]	; (8002460 <HAL_I2C_Init+0x280>)
 800227e:	fba2 2303 	umull	r2, r3, r2, r3
 8002282:	0c9b      	lsrs	r3, r3, #18
 8002284:	60bb      	str	r3, [r7, #8]
 8002286:	687b      	ldr	r3, [r7, #4]
 8002288:	681b      	ldr	r3, [r3, #0]
 800228a:	685b      	ldr	r3, [r3, #4]
 800228c:	f023 013f 	bic.w	r1, r3, #63	; 0x3f
 8002290:	687b      	ldr	r3, [r7, #4]
 8002292:	681b      	ldr	r3, [r3, #0]
 8002294:	68ba      	ldr	r2, [r7, #8]
 8002296:	430a      	orrs	r2, r1
 8002298:	605a      	str	r2, [r3, #4]
 800229a:	687b      	ldr	r3, [r7, #4]
 800229c:	681b      	ldr	r3, [r3, #0]
 800229e:	6a1b      	ldr	r3, [r3, #32]
 80022a0:	f023 013f 	bic.w	r1, r3, #63	; 0x3f
 80022a4:	687b      	ldr	r3, [r7, #4]
 80022a6:	685b      	ldr	r3, [r3, #4]
 80022a8:	4a6a      	ldr	r2, [pc, #424]	; (8002454 <HAL_I2C_Init+0x274>)
 80022aa:	4293      	cmp	r3, r2
 80022ac:	d802      	bhi.n	80022b4 <HAL_I2C_Init+0xd4>
 80022ae:	68bb      	ldr	r3, [r7, #8]
 80022b0:	3301      	adds	r3, #1
 80022b2:	e009      	b.n	80022c8 <HAL_I2C_Init+0xe8>
 80022b4:	68bb      	ldr	r3, [r7, #8]
 80022b6:	f44f 7296 	mov.w	r2, #300	; 0x12c
 80022ba:	fb02 f303 	mul.w	r3, r2, r3
 80022be:	4a69      	ldr	r2, [pc, #420]	; (8002464 <HAL_I2C_Init+0x284>)
 80022c0:	fba2 2303 	umull	r2, r3, r2, r3
 80022c4:	099b      	lsrs	r3, r3, #6
 80022c6:	3301      	adds	r3, #1
 80022c8:	687a      	ldr	r2, [r7, #4]
 80022ca:	6812      	ldr	r2, [r2, #0]
 80022cc:	430b      	orrs	r3, r1
 80022ce:	6213      	str	r3, [r2, #32]
 80022d0:	687b      	ldr	r3, [r7, #4]
 80022d2:	681b      	ldr	r3, [r3, #0]
 80022d4:	69db      	ldr	r3, [r3, #28]
 80022d6:	f423 424f 	bic.w	r2, r3, #52992	; 0xcf00
 80022da:	f022 02ff 	bic.w	r2, r2, #255	; 0xff
 80022de:	687b      	ldr	r3, [r7, #4]
 80022e0:	685b      	ldr	r3, [r3, #4]
 80022e2:	495c      	ldr	r1, [pc, #368]	; (8002454 <HAL_I2C_Init+0x274>)
 80022e4:	428b      	cmp	r3, r1
 80022e6:	d819      	bhi.n	800231c <HAL_I2C_Init+0x13c>
 80022e8:	68fb      	ldr	r3, [r7, #12]
 80022ea:	1e59      	subs	r1, r3, #1
 80022ec:	687b      	ldr	r3, [r7, #4]
 80022ee:	685b      	ldr	r3, [r3, #4]
 80022f0:	005b      	lsls	r3, r3, #1
 80022f2:	fbb1 f3f3 	udiv	r3, r1, r3
 80022f6:	1c59      	adds	r1, r3, #1
 80022f8:	f640 73fc 	movw	r3, #4092	; 0xffc
 80022fc:	400b      	ands	r3, r1
 80022fe:	2b00      	cmp	r3, #0
 8002300:	d00a      	beq.n	8002318 <HAL_I2C_Init+0x138>
 8002302:	68fb      	ldr	r3, [r7, #12]
 8002304:	1e59      	subs	r1, r3, #1
 8002306:	687b      	ldr	r3, [r7, #4]
 8002308:	685b      	ldr	r3, [r3, #4]
 800230a:	005b      	lsls	r3, r3, #1
 800230c:	fbb1 f3f3 	udiv	r3, r1, r3
 8002310:	3301      	adds	r3, #1
 8002312:	f3c3 030b 	ubfx	r3, r3, #0, #12
 8002316:	e051      	b.n	80023bc <HAL_I2C_Init+0x1dc>
 8002318:	2304      	movs	r3, #4
 800231a:	e04f      	b.n	80023bc <HAL_I2C_Init+0x1dc>
 800231c:	687b      	ldr	r3, [r7, #4]
 800231e:	689b      	ldr	r3, [r3, #8]
 8002320:	2b00      	cmp	r3, #0
 8002322:	d111      	bne.n	8002348 <HAL_I2C_Init+0x168>
 8002324:	68fb      	ldr	r3, [r7, #12]
 8002326:	1e58      	subs	r0, r3, #1
 8002328:	687b      	ldr	r3, [r7, #4]
 800232a:	6859      	ldr	r1, [r3, #4]
 800232c:	460b      	mov	r3, r1
 800232e:	005b      	lsls	r3, r3, #1
 8002330:	440b      	add	r3, r1
 8002332:	fbb0 f3f3 	udiv	r3, r0, r3
 8002336:	3301      	adds	r3, #1
 8002338:	f3c3 030b 	ubfx	r3, r3, #0, #12
 800233c:	2b00      	cmp	r3, #0
 800233e:	bf0c      	ite	eq
 8002340:	2301      	moveq	r3, #1
 8002342:	2300      	movne	r3, #0
 8002344:	b2db      	uxtb	r3, r3
 8002346:	e012      	b.n	800236e <HAL_I2C_Init+0x18e>
 8002348:	68fb      	ldr	r3, [r7, #12]
 800234a:	1e58      	subs	r0, r3, #1
 800234c:	687b      	ldr	r3, [r7, #4]
 800234e:	6859      	ldr	r1, [r3, #4]
 8002350:	460b      	mov	r3, r1
 8002352:	009b      	lsls	r3, r3, #2
 8002354:	440b      	add	r3, r1
 8002356:	0099      	lsls	r1, r3, #2
 8002358:	440b      	add	r3, r1
 800235a:	fbb0 f3f3 	udiv	r3, r0, r3
 800235e:	3301      	adds	r3, #1
 8002360:	f3c3 030b 	ubfx	r3, r3, #0, #12
 8002364:	2b00      	cmp	r3, #0
 8002366:	bf0c      	ite	eq
 8002368:	2301      	moveq	r3, #1
 800236a:	2300      	movne	r3, #0
 800236c:	b2db      	uxtb	r3, r3
 800236e:	2b00      	cmp	r3, #0
 8002370:	d001      	beq.n	8002376 <HAL_I2C_Init+0x196>
 8002372:	2301      	movs	r3, #1
 8002374:	e022      	b.n	80023bc <HAL_I2C_Init+0x1dc>
 8002376:	687b      	ldr	r3, [r7, #4]
 8002378:	689b      	ldr	r3, [r3, #8]
 800237a:	2b00      	cmp	r3, #0
 800237c:	d10e      	bne.n	800239c <HAL_I2C_Init+0x1bc>
 800237e:	68fb      	ldr	r3, [r7, #12]
 8002380:	1e58      	subs	r0, r3, #1
 8002382:	687b      	ldr	r3, [r7, #4]
 8002384:	6859      	ldr	r1, [r3, #4]
 8002386:	460b      	mov	r3, r1
 8002388:	005b      	lsls	r3, r3, #1
 800238a:	440b      	add	r3, r1
 800238c:	fbb0 f3f3 	udiv	r3, r0, r3
 8002390:	3301      	adds	r3, #1
 8002392:	f3c3 030b 	ubfx	r3, r3, #0, #12
 8002396:	f443 4300 	orr.w	r3, r3, #32768	; 0x8000
 800239a:	e00f      	b.n	80023bc <HAL_I2C_Init+0x1dc>
 800239c:	68fb      	ldr	r3, [r7, #12]
 800239e:	1e58      	subs	r0, r3, #1
 80023a0:	687b      	ldr	r3, [r7, #4]
 80023a2:	6859      	ldr	r1, [r3, #4]
 80023a4:	460b      	mov	r3, r1
 80023a6:	009b      	lsls	r3, r3, #2
 80023a8:	440b      	add	r3, r1
 80023aa:	0099      	lsls	r1, r3, #2
 80023ac:	440b      	add	r3, r1
 80023ae:	fbb0 f3f3 	udiv	r3, r0, r3
 80023b2:	3301      	adds	r3, #1
 80023b4:	f3c3 030b 	ubfx	r3, r3, #0, #12
 80023b8:	f443 4340 	orr.w	r3, r3, #49152	; 0xc000
 80023bc:	6879      	ldr	r1, [r7, #4]
 80023be:	6809      	ldr	r1, [r1, #0]
 80023c0:	4313      	orrs	r3, r2
 80023c2:	61cb      	str	r3, [r1, #28]
 80023c4:	687b      	ldr	r3, [r7, #4]
 80023c6:	681b      	ldr	r3, [r3, #0]
 80023c8:	681b      	ldr	r3, [r3, #0]
 80023ca:	f023 01c0 	bic.w	r1, r3, #192	; 0xc0
 80023ce:	687b      	ldr	r3, [r7, #4]
 80023d0:	69da      	ldr	r2, [r3, #28]
 80023d2:	687b      	ldr	r3, [r7, #4]
 80023d4:	6a1b      	ldr	r3, [r3, #32]
 80023d6:	431a      	orrs	r2, r3
 80023d8:	687b      	ldr	r3, [r7, #4]
 80023da:	681b      	ldr	r3, [r3, #0]
 80023dc:	430a      	orrs	r2, r1
 80023de:	601a      	str	r2, [r3, #0]
 80023e0:	687b      	ldr	r3, [r7, #4]
 80023e2:	681b      	ldr	r3, [r3, #0]
 80023e4:	689b      	ldr	r3, [r3, #8]
 80023e6:	f423 4303 	bic.w	r3, r3, #33536	; 0x8300
 80023ea:	f023 03ff 	bic.w	r3, r3, #255	; 0xff
 80023ee:	687a      	ldr	r2, [r7, #4]
 80023f0:	6911      	ldr	r1, [r2, #16]
 80023f2:	687a      	ldr	r2, [r7, #4]
 80023f4:	68d2      	ldr	r2, [r2, #12]
 80023f6:	4311      	orrs	r1, r2
 80023f8:	687a      	ldr	r2, [r7, #4]
 80023fa:	6812      	ldr	r2, [r2, #0]
 80023fc:	430b      	orrs	r3, r1
 80023fe:	6093      	str	r3, [r2, #8]
 8002400:	687b      	ldr	r3, [r7, #4]
 8002402:	681b      	ldr	r3, [r3, #0]
 8002404:	68db      	ldr	r3, [r3, #12]
 8002406:	f023 01ff 	bic.w	r1, r3, #255	; 0xff
 800240a:	687b      	ldr	r3, [r7, #4]
 800240c:	695a      	ldr	r2, [r3, #20]
 800240e:	687b      	ldr	r3, [r7, #4]
 8002410:	699b      	ldr	r3, [r3, #24]
 8002412:	431a      	orrs	r2, r3
 8002414:	687b      	ldr	r3, [r7, #4]
 8002416:	681b      	ldr	r3, [r3, #0]
 8002418:	430a      	orrs	r2, r1
 800241a:	60da      	str	r2, [r3, #12]
 800241c:	687b      	ldr	r3, [r7, #4]
 800241e:	681b      	ldr	r3, [r3, #0]
 8002420:	681a      	ldr	r2, [r3, #0]
 8002422:	687b      	ldr	r3, [r7, #4]
 8002424:	681b      	ldr	r3, [r3, #0]
 8002426:	f042 0201 	orr.w	r2, r2, #1
 800242a:	601a      	str	r2, [r3, #0]
 800242c:	687b      	ldr	r3, [r7, #4]
 800242e:	2200      	movs	r2, #0
 8002430:	641a      	str	r2, [r3, #64]	; 0x40
 8002432:	687b      	ldr	r3, [r7, #4]
 8002434:	2220      	movs	r2, #32
 8002436:	f883 203d 	strb.w	r2, [r3, #61]	; 0x3d
 800243a:	687b      	ldr	r3, [r7, #4]
 800243c:	2200      	movs	r2, #0
 800243e:	631a      	str	r2, [r3, #48]	; 0x30
 8002440:	687b      	ldr	r3, [r7, #4]
 8002442:	2200      	movs	r2, #0
 8002444:	f883 203e 	strb.w	r2, [r3, #62]	; 0x3e
 8002448:	2300      	movs	r3, #0
 800244a:	4618      	mov	r0, r3
 800244c:	3710      	adds	r7, #16
 800244e:	46bd      	mov	sp, r7
 8002450:	bd80      	pop	{r7, pc}
 8002452:	bf00      	nop
 8002454:	000186a0 	.word	0x000186a0
 8002458:	001e847f 	.word	0x001e847f
 800245c:	003d08ff 	.word	0x003d08ff
 8002460:	431bde83 	.word	0x431bde83
 8002464:	10624dd3 	.word	0x10624dd3

08002468 <HAL_I2C_Master_Transmit>:
 8002468:	b580      	push	{r7, lr}
 800246a:	b088      	sub	sp, #32
 800246c:	af02      	add	r7, sp, #8
 800246e:	60f8      	str	r0, [r7, #12]
 8002470:	607a      	str	r2, [r7, #4]
 8002472:	461a      	mov	r2, r3
 8002474:	460b      	mov	r3, r1
 8002476:	817b      	strh	r3, [r7, #10]
 8002478:	4613      	mov	r3, r2
 800247a:	813b      	strh	r3, [r7, #8]
 800247c:	f7fe fd4a 	bl	8000f14 <HAL_GetTick>
 8002480:	6178      	str	r0, [r7, #20]
 8002482:	68fb      	ldr	r3, [r7, #12]
 8002484:	f893 303d 	ldrb.w	r3, [r3, #61]	; 0x3d
 8002488:	b2db      	uxtb	r3, r3
 800248a:	2b20      	cmp	r3, #32
 800248c:	f040 80e0 	bne.w	8002650 <HAL_I2C_Master_Transmit+0x1e8>
 8002490:	697b      	ldr	r3, [r7, #20]
 8002492:	9300      	str	r3, [sp, #0]
 8002494:	2319      	movs	r3, #25
 8002496:	2201      	movs	r2, #1
 8002498:	4970      	ldr	r1, [pc, #448]	; (800265c <HAL_I2C_Master_Transmit+0x1f4>)
 800249a:	68f8      	ldr	r0, [r7, #12]
 800249c:	f000 fa92 	bl	80029c4 <I2C_WaitOnFlagUntilTimeout>
 80024a0:	4603      	mov	r3, r0
 80024a2:	2b00      	cmp	r3, #0
 80024a4:	d001      	beq.n	80024aa <HAL_I2C_Master_Transmit+0x42>
 80024a6:	2302      	movs	r3, #2
 80024a8:	e0d3      	b.n	8002652 <HAL_I2C_Master_Transmit+0x1ea>
 80024aa:	68fb      	ldr	r3, [r7, #12]
 80024ac:	f893 303c 	ldrb.w	r3, [r3, #60]	; 0x3c
 80024b0:	2b01      	cmp	r3, #1
 80024b2:	d101      	bne.n	80024b8 <HAL_I2C_Master_Transmit+0x50>
 80024b4:	2302      	movs	r3, #2
 80024b6:	e0cc      	b.n	8002652 <HAL_I2C_Master_Transmit+0x1ea>
 80024b8:	68fb      	ldr	r3, [r7, #12]
 80024ba:	2201      	movs	r2, #1
 80024bc:	f883 203c 	strb.w	r2, [r3, #60]	; 0x3c
 80024c0:	68fb      	ldr	r3, [r7, #12]
 80024c2:	681b      	ldr	r3, [r3, #0]
 80024c4:	681b      	ldr	r3, [r3, #0]
 80024c6:	f003 0301 	and.w	r3, r3, #1
 80024ca:	2b01      	cmp	r3, #1
 80024cc:	d007      	beq.n	80024de <HAL_I2C_Master_Transmit+0x76>
 80024ce:	68fb      	ldr	r3, [r7, #12]
 80024d0:	681b      	ldr	r3, [r3, #0]
 80024d2:	681a      	ldr	r2, [r3, #0]
 80024d4:	68fb      	ldr	r3, [r7, #12]
 80024d6:	681b      	ldr	r3, [r3, #0]
 80024d8:	f042 0201 	orr.w	r2, r2, #1
 80024dc:	601a      	str	r2, [r3, #0]
 80024de:	68fb      	ldr	r3, [r7, #12]
 80024e0:	681b      	ldr	r3, [r3, #0]
 80024e2:	681a      	ldr	r2, [r3, #0]
 80024e4:	68fb      	ldr	r3, [r7, #12]
 80024e6:	681b      	ldr	r3, [r3, #0]
 80024e8:	f422 6200 	bic.w	r2, r2, #2048	; 0x800
 80024ec:	601a      	str	r2, [r3, #0]
 80024ee:	68fb      	ldr	r3, [r7, #12]
 80024f0:	2221      	movs	r2, #33	; 0x21
 80024f2:	f883 203d 	strb.w	r2, [r3, #61]	; 0x3d
 80024f6:	68fb      	ldr	r3, [r7, #12]
 80024f8:	2210      	movs	r2, #16
 80024fa:	f883 203e 	strb.w	r2, [r3, #62]	; 0x3e
 80024fe:	68fb      	ldr	r3, [r7, #12]
 8002500:	2200      	movs	r2, #0
 8002502:	641a      	str	r2, [r3, #64]	; 0x40
 8002504:	68fb      	ldr	r3, [r7, #12]
 8002506:	687a      	ldr	r2, [r7, #4]
 8002508:	625a      	str	r2, [r3, #36]	; 0x24
 800250a:	68fb      	ldr	r3, [r7, #12]
 800250c:	893a      	ldrh	r2, [r7, #8]
 800250e:	855a      	strh	r2, [r3, #42]	; 0x2a
 8002510:	68fb      	ldr	r3, [r7, #12]
 8002512:	8d5b      	ldrh	r3, [r3, #42]	; 0x2a
 8002514:	b29a      	uxth	r2, r3
 8002516:	68fb      	ldr	r3, [r7, #12]
 8002518:	851a      	strh	r2, [r3, #40]	; 0x28
 800251a:	68fb      	ldr	r3, [r7, #12]
 800251c:	4a50      	ldr	r2, [pc, #320]	; (8002660 <HAL_I2C_Master_Transmit+0x1f8>)
 800251e:	62da      	str	r2, [r3, #44]	; 0x2c
 8002520:	8979      	ldrh	r1, [r7, #10]
 8002522:	697b      	ldr	r3, [r7, #20]
 8002524:	6a3a      	ldr	r2, [r7, #32]
 8002526:	68f8      	ldr	r0, [r7, #12]
 8002528:	f000 f9ca 	bl	80028c0 <I2C_MasterRequestWrite>
 800252c:	4603      	mov	r3, r0
 800252e:	2b00      	cmp	r3, #0
 8002530:	d001      	beq.n	8002536 <HAL_I2C_Master_Transmit+0xce>
 8002532:	2301      	movs	r3, #1
 8002534:	e08d      	b.n	8002652 <HAL_I2C_Master_Transmit+0x1ea>
 8002536:	2300      	movs	r3, #0
 8002538:	613b      	str	r3, [r7, #16]
 800253a:	68fb      	ldr	r3, [r7, #12]
 800253c:	681b      	ldr	r3, [r3, #0]
 800253e:	695b      	ldr	r3, [r3, #20]
 8002540:	613b      	str	r3, [r7, #16]
 8002542:	68fb      	ldr	r3, [r7, #12]
 8002544:	681b      	ldr	r3, [r3, #0]
 8002546:	699b      	ldr	r3, [r3, #24]
 8002548:	613b      	str	r3, [r7, #16]
 800254a:	693b      	ldr	r3, [r7, #16]
 800254c:	e066      	b.n	800261c <HAL_I2C_Master_Transmit+0x1b4>
 800254e:	697a      	ldr	r2, [r7, #20]
 8002550:	6a39      	ldr	r1, [r7, #32]
 8002552:	68f8      	ldr	r0, [r7, #12]
 8002554:	f000 fb50 	bl	8002bf8 <I2C_WaitOnTXEFlagUntilTimeout>
 8002558:	4603      	mov	r3, r0
 800255a:	2b00      	cmp	r3, #0
 800255c:	d00d      	beq.n	800257a <HAL_I2C_Master_Transmit+0x112>
 800255e:	68fb      	ldr	r3, [r7, #12]
 8002560:	6c1b      	ldr	r3, [r3, #64]	; 0x40
 8002562:	2b04      	cmp	r3, #4
 8002564:	d107      	bne.n	8002576 <HAL_I2C_Master_Transmit+0x10e>
 8002566:	68fb      	ldr	r3, [r7, #12]
 8002568:	681b      	ldr	r3, [r3, #0]
 800256a:	681a      	ldr	r2, [r3, #0]
 800256c:	68fb      	ldr	r3, [r7, #12]
 800256e:	681b      	ldr	r3, [r3, #0]
 8002570:	f442 7200 	orr.w	r2, r2, #512	; 0x200
 8002574:	601a      	str	r2, [r3, #0]
 8002576:	2301      	movs	r3, #1
 8002578:	e06b      	b.n	8002652 <HAL_I2C_Master_Transmit+0x1ea>
 800257a:	68fb      	ldr	r3, [r7, #12]
 800257c:	6a5b      	ldr	r3, [r3, #36]	; 0x24
 800257e:	781a      	ldrb	r2, [r3, #0]
 8002580:	68fb      	ldr	r3, [r7, #12]
 8002582:	681b      	ldr	r3, [r3, #0]
 8002584:	611a      	str	r2, [r3, #16]
 8002586:	68fb      	ldr	r3, [r7, #12]
 8002588:	6a5b      	ldr	r3, [r3, #36]	; 0x24
 800258a:	1c5a      	adds	r2, r3, #1
 800258c:	68fb      	ldr	r3, [r7, #12]
 800258e:	625a      	str	r2, [r3, #36]	; 0x24
 8002590:	68fb      	ldr	r3, [r7, #12]
 8002592:	8d5b      	ldrh	r3, [r3, #42]	; 0x2a
 8002594:	b29b      	uxth	r3, r3
 8002596:	3b01      	subs	r3, #1
 8002598:	b29a      	uxth	r2, r3
 800259a:	68fb      	ldr	r3, [r7, #12]
 800259c:	855a      	strh	r2, [r3, #42]	; 0x2a
 800259e:	68fb      	ldr	r3, [r7, #12]
 80025a0:	8d1b      	ldrh	r3, [r3, #40]	; 0x28
 80025a2:	3b01      	subs	r3, #1
 80025a4:	b29a      	uxth	r2, r3
 80025a6:	68fb      	ldr	r3, [r7, #12]
 80025a8:	851a      	strh	r2, [r3, #40]	; 0x28
 80025aa:	68fb      	ldr	r3, [r7, #12]
 80025ac:	681b      	ldr	r3, [r3, #0]
 80025ae:	695b      	ldr	r3, [r3, #20]
 80025b0:	f003 0304 	and.w	r3, r3, #4
 80025b4:	2b04      	cmp	r3, #4
 80025b6:	d11b      	bne.n	80025f0 <HAL_I2C_Master_Transmit+0x188>
 80025b8:	68fb      	ldr	r3, [r7, #12]
 80025ba:	8d1b      	ldrh	r3, [r3, #40]	; 0x28
 80025bc:	2b00      	cmp	r3, #0
 80025be:	d017      	beq.n	80025f0 <HAL_I2C_Master_Transmit+0x188>
 80025c0:	68fb      	ldr	r3, [r7, #12]
 80025c2:	6a5b      	ldr	r3, [r3, #36]	; 0x24
 80025c4:	781a      	ldrb	r2, [r3, #0]
 80025c6:	68fb      	ldr	r3, [r7, #12]
 80025c8:	681b      	ldr	r3, [r3, #0]
 80025ca:	611a      	str	r2, [r3, #16]
 80025cc:	68fb      	ldr	r3, [r7, #12]
 80025ce:	6a5b      	ldr	r3, [r3, #36]	; 0x24
 80025d0:	1c5a      	adds	r2, r3, #1
 80025d2:	68fb      	ldr	r3, [r7, #12]
 80025d4:	625a      	str	r2, [r3, #36]	; 0x24
 80025d6:	68fb      	ldr	r3, [r7, #12]
 80025d8:	8d5b      	ldrh	r3, [r3, #42]	; 0x2a
 80025da:	b29b      	uxth	r3, r3
 80025dc:	3b01      	subs	r3, #1
 80025de:	b29a      	uxth	r2, r3
 80025e0:	68fb      	ldr	r3, [r7, #12]
 80025e2:	855a      	strh	r2, [r3, #42]	; 0x2a
 80025e4:	68fb      	ldr	r3, [r7, #12]
 80025e6:	8d1b      	ldrh	r3, [r3, #40]	; 0x28
 80025e8:	3b01      	subs	r3, #1
 80025ea:	b29a      	uxth	r2, r3
 80025ec:	68fb      	ldr	r3, [r7, #12]
 80025ee:	851a      	strh	r2, [r3, #40]	; 0x28
 80025f0:	697a      	ldr	r2, [r7, #20]
 80025f2:	6a39      	ldr	r1, [r7, #32]
 80025f4:	68f8      	ldr	r0, [r7, #12]
 80025f6:	f000 fb47 	bl	8002c88 <I2C_WaitOnBTFFlagUntilTimeout>
 80025fa:	4603      	mov	r3, r0
 80025fc:	2b00      	cmp	r3, #0
 80025fe:	d00d      	beq.n	800261c <HAL_I2C_Master_Transmit+0x1b4>
 8002600:	68fb      	ldr	r3, [r7, #12]
 8002602:	6c1b      	ldr	r3, [r3, #64]	; 0x40
 8002604:	2b04      	cmp	r3, #4
 8002606:	d107      	bne.n	8002618 <HAL_I2C_Master_Transmit+0x1b0>
 8002608:	68fb      	ldr	r3, [r7, #12]
 800260a:	681b      	ldr	r3, [r3, #0]
 800260c:	681a      	ldr	r2, [r3, #0]
 800260e:	68fb      	ldr	r3, [r7, #12]
 8002610:	681b      	ldr	r3, [r3, #0]
 8002612:	f442 7200 	orr.w	r2, r2, #512	; 0x200
 8002616:	601a      	str	r2, [r3, #0]
 8002618:	2301      	movs	r3, #1
 800261a:	e01a      	b.n	8002652 <HAL_I2C_Master_Transmit+0x1ea>
 800261c:	68fb      	ldr	r3, [r7, #12]
 800261e:	8d1b      	ldrh	r3, [r3, #40]	; 0x28
 8002620:	2b00      	cmp	r3, #0
 8002622:	d194      	bne.n	800254e <HAL_I2C_Master_Transmit+0xe6>
 8002624:	68fb      	ldr	r3, [r7, #12]
 8002626:	681b      	ldr	r3, [r3, #0]
 8002628:	681a      	ldr	r2, [r3, #0]
 800262a:	68fb      	ldr	r3, [r7, #12]
 800262c:	681b      	ldr	r3, [r3, #0]
 800262e:	f442 7200 	orr.w	r2, r2, #512	; 0x200
 8002632:	601a      	str	r2, [r3, #0]
 8002634:	68fb      	ldr	r3, [r7, #12]
 8002636:	2220      	movs	r2, #32
 8002638:	f883 203d 	strb.w	r2, [r3, #61]	; 0x3d
 800263c:	68fb      	ldr	r3, [r7, #12]
 800263e:	2200      	movs	r2, #0
 8002640:	f883 203e 	strb.w	r2, [r3, #62]	; 0x3e
 8002644:	68fb      	ldr	r3, [r7, #12]
 8002646:	2200      	movs	r2, #0
 8002648:	f883 203c 	strb.w	r2, [r3, #60]	; 0x3c
 800264c:	2300      	movs	r3, #0
 800264e:	e000      	b.n	8002652 <HAL_I2C_Master_Transmit+0x1ea>
 8002650:	2302      	movs	r3, #2
 8002652:	4618      	mov	r0, r3
 8002654:	3718      	adds	r7, #24
 8002656:	46bd      	mov	sp, r7
 8002658:	bd80      	pop	{r7, pc}
 800265a:	bf00      	nop
 800265c:	00100002 	.word	0x00100002
 8002660:	ffff0000 	.word	0xffff0000

08002664 <HAL_I2C_IsDeviceReady>:
 8002664:	b580      	push	{r7, lr}
 8002666:	b08a      	sub	sp, #40	; 0x28
 8002668:	af02      	add	r7, sp, #8
 800266a:	60f8      	str	r0, [r7, #12]
 800266c:	607a      	str	r2, [r7, #4]
 800266e:	603b      	str	r3, [r7, #0]
 8002670:	460b      	mov	r3, r1
 8002672:	817b      	strh	r3, [r7, #10]
 8002674:	f7fe fc4e 	bl	8000f14 <HAL_GetTick>
 8002678:	61f8      	str	r0, [r7, #28]
 800267a:	2300      	movs	r3, #0
 800267c:	61bb      	str	r3, [r7, #24]
 800267e:	68fb      	ldr	r3, [r7, #12]
 8002680:	f893 303d 	ldrb.w	r3, [r3, #61]	; 0x3d
 8002684:	b2db      	uxtb	r3, r3
 8002686:	2b20      	cmp	r3, #32
 8002688:	f040 8111 	bne.w	80028ae <HAL_I2C_IsDeviceReady+0x24a>
 800268c:	69fb      	ldr	r3, [r7, #28]
 800268e:	9300      	str	r3, [sp, #0]
 8002690:	2319      	movs	r3, #25
 8002692:	2201      	movs	r2, #1
 8002694:	4988      	ldr	r1, [pc, #544]	; (80028b8 <HAL_I2C_IsDeviceReady+0x254>)
 8002696:	68f8      	ldr	r0, [r7, #12]
 8002698:	f000 f994 	bl	80029c4 <I2C_WaitOnFlagUntilTimeout>
 800269c:	4603      	mov	r3, r0
 800269e:	2b00      	cmp	r3, #0
 80026a0:	d001      	beq.n	80026a6 <HAL_I2C_IsDeviceReady+0x42>
 80026a2:	2302      	movs	r3, #2
 80026a4:	e104      	b.n	80028b0 <HAL_I2C_IsDeviceReady+0x24c>
 80026a6:	68fb      	ldr	r3, [r7, #12]
 80026a8:	f893 303c 	ldrb.w	r3, [r3, #60]	; 0x3c
 80026ac:	2b01      	cmp	r3, #1
 80026ae:	d101      	bne.n	80026b4 <HAL_I2C_IsDeviceReady+0x50>
 80026b0:	2302      	movs	r3, #2
 80026b2:	e0fd      	b.n	80028b0 <HAL_I2C_IsDeviceReady+0x24c>
 80026b4:	68fb      	ldr	r3, [r7, #12]
 80026b6:	2201      	movs	r2, #1
 80026b8:	f883 203c 	strb.w	r2, [r3, #60]	; 0x3c
 80026bc:	68fb      	ldr	r3, [r7, #12]
 80026be:	681b      	ldr	r3, [r3, #0]
 80026c0:	681b      	ldr	r3, [r3, #0]
 80026c2:	f003 0301 	and.w	r3, r3, #1
 80026c6:	2b01      	cmp	r3, #1
 80026c8:	d007      	beq.n	80026da <HAL_I2C_IsDeviceReady+0x76>
 80026ca:	68fb      	ldr	r3, [r7, #12]
 80026cc:	681b      	ldr	r3, [r3, #0]
 80026ce:	681a      	ldr	r2, [r3, #0]
 80026d0:	68fb      	ldr	r3, [r7, #12]
 80026d2:	681b      	ldr	r3, [r3, #0]
 80026d4:	f042 0201 	orr.w	r2, r2, #1
 80026d8:	601a      	str	r2, [r3, #0]
 80026da:	68fb      	ldr	r3, [r7, #12]
 80026dc:	681b      	ldr	r3, [r3, #0]
 80026de:	681a      	ldr	r2, [r3, #0]
 80026e0:	68fb      	ldr	r3, [r7, #12]
 80026e2:	681b      	ldr	r3, [r3, #0]
 80026e4:	f422 6200 	bic.w	r2, r2, #2048	; 0x800
 80026e8:	601a      	str	r2, [r3, #0]
 80026ea:	68fb      	ldr	r3, [r7, #12]
 80026ec:	2224      	movs	r2, #36	; 0x24
 80026ee:	f883 203d 	strb.w	r2, [r3, #61]	; 0x3d
 80026f2:	68fb      	ldr	r3, [r7, #12]
 80026f4:	2200      	movs	r2, #0
 80026f6:	641a      	str	r2, [r3, #64]	; 0x40
 80026f8:	68fb      	ldr	r3, [r7, #12]
 80026fa:	4a70      	ldr	r2, [pc, #448]	; (80028bc <HAL_I2C_IsDeviceReady+0x258>)
 80026fc:	62da      	str	r2, [r3, #44]	; 0x2c
 80026fe:	68fb      	ldr	r3, [r7, #12]
 8002700:	681b      	ldr	r3, [r3, #0]
 8002702:	681a      	ldr	r2, [r3, #0]
 8002704:	68fb      	ldr	r3, [r7, #12]
 8002706:	681b      	ldr	r3, [r3, #0]
 8002708:	f442 7280 	orr.w	r2, r2, #256	; 0x100
 800270c:	601a      	str	r2, [r3, #0]
 800270e:	69fb      	ldr	r3, [r7, #28]
 8002710:	9300      	str	r3, [sp, #0]
 8002712:	683b      	ldr	r3, [r7, #0]
 8002714:	2200      	movs	r2, #0
 8002716:	f04f 1101 	mov.w	r1, #65537	; 0x10001
 800271a:	68f8      	ldr	r0, [r7, #12]
 800271c:	f000 f952 	bl	80029c4 <I2C_WaitOnFlagUntilTimeout>
 8002720:	4603      	mov	r3, r0
 8002722:	2b00      	cmp	r3, #0
 8002724:	d00d      	beq.n	8002742 <HAL_I2C_IsDeviceReady+0xde>
 8002726:	68fb      	ldr	r3, [r7, #12]
 8002728:	681b      	ldr	r3, [r3, #0]
 800272a:	681b      	ldr	r3, [r3, #0]
 800272c:	f403 7380 	and.w	r3, r3, #256	; 0x100
 8002730:	f5b3 7f80 	cmp.w	r3, #256	; 0x100
 8002734:	d103      	bne.n	800273e <HAL_I2C_IsDeviceReady+0xda>
 8002736:	68fb      	ldr	r3, [r7, #12]
 8002738:	f44f 7200 	mov.w	r2, #512	; 0x200
 800273c:	641a      	str	r2, [r3, #64]	; 0x40
 800273e:	2303      	movs	r3, #3
 8002740:	e0b6      	b.n	80028b0 <HAL_I2C_IsDeviceReady+0x24c>
 8002742:	897b      	ldrh	r3, [r7, #10]
 8002744:	b2db      	uxtb	r3, r3
 8002746:	461a      	mov	r2, r3
 8002748:	68fb      	ldr	r3, [r7, #12]
 800274a:	681b      	ldr	r3, [r3, #0]
 800274c:	f002 02fe 	and.w	r2, r2, #254	; 0xfe
 8002750:	611a      	str	r2, [r3, #16]
 8002752:	f7fe fbdf 	bl	8000f14 <HAL_GetTick>
 8002756:	61f8      	str	r0, [r7, #28]
 8002758:	68fb      	ldr	r3, [r7, #12]
 800275a:	681b      	ldr	r3, [r3, #0]
 800275c:	695b      	ldr	r3, [r3, #20]
 800275e:	f003 0302 	and.w	r3, r3, #2
 8002762:	2b02      	cmp	r3, #2
 8002764:	bf0c      	ite	eq
 8002766:	2301      	moveq	r3, #1
 8002768:	2300      	movne	r3, #0
 800276a:	b2db      	uxtb	r3, r3
 800276c:	75fb      	strb	r3, [r7, #23]
 800276e:	68fb      	ldr	r3, [r7, #12]
 8002770:	681b      	ldr	r3, [r3, #0]
 8002772:	695b      	ldr	r3, [r3, #20]
 8002774:	f403 6380 	and.w	r3, r3, #1024	; 0x400
 8002778:	f5b3 6f80 	cmp.w	r3, #1024	; 0x400
 800277c:	bf0c      	ite	eq
 800277e:	2301      	moveq	r3, #1
 8002780:	2300      	movne	r3, #0
 8002782:	b2db      	uxtb	r3, r3
 8002784:	75bb      	strb	r3, [r7, #22]
 8002786:	e025      	b.n	80027d4 <HAL_I2C_IsDeviceReady+0x170>
 8002788:	f7fe fbc4 	bl	8000f14 <HAL_GetTick>
 800278c:	4602      	mov	r2, r0
 800278e:	69fb      	ldr	r3, [r7, #28]
 8002790:	1ad3      	subs	r3, r2, r3
 8002792:	683a      	ldr	r2, [r7, #0]
 8002794:	429a      	cmp	r2, r3
 8002796:	d302      	bcc.n	800279e <HAL_I2C_IsDeviceReady+0x13a>
 8002798:	683b      	ldr	r3, [r7, #0]
 800279a:	2b00      	cmp	r3, #0
 800279c:	d103      	bne.n	80027a6 <HAL_I2C_IsDeviceReady+0x142>
 800279e:	68fb      	ldr	r3, [r7, #12]
 80027a0:	22a0      	movs	r2, #160	; 0xa0
 80027a2:	f883 203d 	strb.w	r2, [r3, #61]	; 0x3d
 80027a6:	68fb      	ldr	r3, [r7, #12]
 80027a8:	681b      	ldr	r3, [r3, #0]
 80027aa:	695b      	ldr	r3, [r3, #20]
 80027ac:	f003 0302 	and.w	r3, r3, #2
 80027b0:	2b02      	cmp	r3, #2
 80027b2:	bf0c      	ite	eq
 80027b4:	2301      	moveq	r3, #1
 80027b6:	2300      	movne	r3, #0
 80027b8:	b2db      	uxtb	r3, r3
 80027ba:	75fb      	strb	r3, [r7, #23]
 80027bc:	68fb      	ldr	r3, [r7, #12]
 80027be:	681b      	ldr	r3, [r3, #0]
 80027c0:	695b      	ldr	r3, [r3, #20]
 80027c2:	f403 6380 	and.w	r3, r3, #1024	; 0x400
 80027c6:	f5b3 6f80 	cmp.w	r3, #1024	; 0x400
 80027ca:	bf0c      	ite	eq
 80027cc:	2301      	moveq	r3, #1
 80027ce:	2300      	movne	r3, #0
 80027d0:	b2db      	uxtb	r3, r3
 80027d2:	75bb      	strb	r3, [r7, #22]
 80027d4:	68fb      	ldr	r3, [r7, #12]
 80027d6:	f893 303d 	ldrb.w	r3, [r3, #61]	; 0x3d
 80027da:	b2db      	uxtb	r3, r3
 80027dc:	2ba0      	cmp	r3, #160	; 0xa0
 80027de:	d005      	beq.n	80027ec <HAL_I2C_IsDeviceReady+0x188>
 80027e0:	7dfb      	ldrb	r3, [r7, #23]
 80027e2:	2b00      	cmp	r3, #0
 80027e4:	d102      	bne.n	80027ec <HAL_I2C_IsDeviceReady+0x188>
 80027e6:	7dbb      	ldrb	r3, [r7, #22]
 80027e8:	2b00      	cmp	r3, #0
 80027ea:	d0cd      	beq.n	8002788 <HAL_I2C_IsDeviceReady+0x124>
 80027ec:	68fb      	ldr	r3, [r7, #12]
 80027ee:	2220      	movs	r2, #32
 80027f0:	f883 203d 	strb.w	r2, [r3, #61]	; 0x3d
 80027f4:	68fb      	ldr	r3, [r7, #12]
 80027f6:	681b      	ldr	r3, [r3, #0]
 80027f8:	695b      	ldr	r3, [r3, #20]
 80027fa:	f003 0302 	and.w	r3, r3, #2
 80027fe:	2b02      	cmp	r3, #2
 8002800:	d129      	bne.n	8002856 <HAL_I2C_IsDeviceReady+0x1f2>
 8002802:	68fb      	ldr	r3, [r7, #12]
 8002804:	681b      	ldr	r3, [r3, #0]
 8002806:	681a      	ldr	r2, [r3, #0]
 8002808:	68fb      	ldr	r3, [r7, #12]
 800280a:	681b      	ldr	r3, [r3, #0]
 800280c:	f442 7200 	orr.w	r2, r2, #512	; 0x200
 8002810:	601a      	str	r2, [r3, #0]
 8002812:	2300      	movs	r3, #0
 8002814:	613b      	str	r3, [r7, #16]
 8002816:	68fb      	ldr	r3, [r7, #12]
 8002818:	681b      	ldr	r3, [r3, #0]
 800281a:	695b      	ldr	r3, [r3, #20]
 800281c:	613b      	str	r3, [r7, #16]
 800281e:	68fb      	ldr	r3, [r7, #12]
 8002820:	681b      	ldr	r3, [r3, #0]
 8002822:	699b      	ldr	r3, [r3, #24]
 8002824:	613b      	str	r3, [r7, #16]
 8002826:	693b      	ldr	r3, [r7, #16]
 8002828:	69fb      	ldr	r3, [r7, #28]
 800282a:	9300      	str	r3, [sp, #0]
 800282c:	2319      	movs	r3, #25
 800282e:	2201      	movs	r2, #1
 8002830:	4921      	ldr	r1, [pc, #132]	; (80028b8 <HAL_I2C_IsDeviceReady+0x254>)
 8002832:	68f8      	ldr	r0, [r7, #12]
 8002834:	f000 f8c6 	bl	80029c4 <I2C_WaitOnFlagUntilTimeout>
 8002838:	4603      	mov	r3, r0
 800283a:	2b00      	cmp	r3, #0
 800283c:	d001      	beq.n	8002842 <HAL_I2C_IsDeviceReady+0x1de>
 800283e:	2301      	movs	r3, #1
 8002840:	e036      	b.n	80028b0 <HAL_I2C_IsDeviceReady+0x24c>
 8002842:	68fb      	ldr	r3, [r7, #12]
 8002844:	2220      	movs	r2, #32
 8002846:	f883 203d 	strb.w	r2, [r3, #61]	; 0x3d
 800284a:	68fb      	ldr	r3, [r7, #12]
 800284c:	2200      	movs	r2, #0
 800284e:	f883 203c 	strb.w	r2, [r3, #60]	; 0x3c
 8002852:	2300      	movs	r3, #0
 8002854:	e02c      	b.n	80028b0 <HAL_I2C_IsDeviceReady+0x24c>
 8002856:	68fb      	ldr	r3, [r7, #12]
 8002858:	681b      	ldr	r3, [r3, #0]
 800285a:	681a      	ldr	r2, [r3, #0]
 800285c:	68fb      	ldr	r3, [r7, #12]
 800285e:	681b      	ldr	r3, [r3, #0]
 8002860:	f442 7200 	orr.w	r2, r2, #512	; 0x200
 8002864:	601a      	str	r2, [r3, #0]
 8002866:	68fb      	ldr	r3, [r7, #12]
 8002868:	681b      	ldr	r3, [r3, #0]
 800286a:	f46f 6280 	mvn.w	r2, #1024	; 0x400
 800286e:	615a      	str	r2, [r3, #20]
 8002870:	69fb      	ldr	r3, [r7, #28]
 8002872:	9300      	str	r3, [sp, #0]
 8002874:	2319      	movs	r3, #25
 8002876:	2201      	movs	r2, #1
 8002878:	490f      	ldr	r1, [pc, #60]	; (80028b8 <HAL_I2C_IsDeviceReady+0x254>)
 800287a:	68f8      	ldr	r0, [r7, #12]
 800287c:	f000 f8a2 	bl	80029c4 <I2C_WaitOnFlagUntilTimeout>
 8002880:	4603      	mov	r3, r0
 8002882:	2b00      	cmp	r3, #0
 8002884:	d001      	beq.n	800288a <HAL_I2C_IsDeviceReady+0x226>
 8002886:	2301      	movs	r3, #1
 8002888:	e012      	b.n	80028b0 <HAL_I2C_IsDeviceReady+0x24c>
 800288a:	69bb      	ldr	r3, [r7, #24]
 800288c:	3301      	adds	r3, #1
 800288e:	61bb      	str	r3, [r7, #24]
 8002890:	69ba      	ldr	r2, [r7, #24]
 8002892:	687b      	ldr	r3, [r7, #4]
 8002894:	429a      	cmp	r2, r3
 8002896:	f4ff af32 	bcc.w	80026fe <HAL_I2C_IsDeviceReady+0x9a>
 800289a:	68fb      	ldr	r3, [r7, #12]
 800289c:	2220      	movs	r2, #32
 800289e:	f883 203d 	strb.w	r2, [r3, #61]	; 0x3d
 80028a2:	68fb      	ldr	r3, [r7, #12]
 80028a4:	2200      	movs	r2, #0
 80028a6:	f883 203c 	strb.w	r2, [r3, #60]	; 0x3c
 80028aa:	2301      	movs	r3, #1
 80028ac:	e000      	b.n	80028b0 <HAL_I2C_IsDeviceReady+0x24c>
 80028ae:	2302      	movs	r3, #2
 80028b0:	4618      	mov	r0, r3
 80028b2:	3720      	adds	r7, #32
 80028b4:	46bd      	mov	sp, r7
 80028b6:	bd80      	pop	{r7, pc}
 80028b8:	00100002 	.word	0x00100002
 80028bc:	ffff0000 	.word	0xffff0000

080028c0 <I2C_MasterRequestWrite>:
 80028c0:	b580      	push	{r7, lr}
 80028c2:	b088      	sub	sp, #32
 80028c4:	af02      	add	r7, sp, #8
 80028c6:	60f8      	str	r0, [r7, #12]
 80028c8:	607a      	str	r2, [r7, #4]
 80028ca:	603b      	str	r3, [r7, #0]
 80028cc:	460b      	mov	r3, r1
 80028ce:	817b      	strh	r3, [r7, #10]
 80028d0:	68fb      	ldr	r3, [r7, #12]
 80028d2:	6adb      	ldr	r3, [r3, #44]	; 0x2c
 80028d4:	617b      	str	r3, [r7, #20]
 80028d6:	697b      	ldr	r3, [r7, #20]
 80028d8:	2b08      	cmp	r3, #8
 80028da:	d006      	beq.n	80028ea <I2C_MasterRequestWrite+0x2a>
 80028dc:	697b      	ldr	r3, [r7, #20]
 80028de:	2b01      	cmp	r3, #1
 80028e0:	d003      	beq.n	80028ea <I2C_MasterRequestWrite+0x2a>
 80028e2:	697b      	ldr	r3, [r7, #20]
 80028e4:	f513 3f80 	cmn.w	r3, #65536	; 0x10000
 80028e8:	d108      	bne.n	80028fc <I2C_MasterRequestWrite+0x3c>
 80028ea:	68fb      	ldr	r3, [r7, #12]
 80028ec:	681b      	ldr	r3, [r3, #0]
 80028ee:	681a      	ldr	r2, [r3, #0]
 80028f0:	68fb      	ldr	r3, [r7, #12]
 80028f2:	681b      	ldr	r3, [r3, #0]
 80028f4:	f442 7280 	orr.w	r2, r2, #256	; 0x100
 80028f8:	601a      	str	r2, [r3, #0]
 80028fa:	e00b      	b.n	8002914 <I2C_MasterRequestWrite+0x54>
 80028fc:	68fb      	ldr	r3, [r7, #12]
 80028fe:	6b1b      	ldr	r3, [r3, #48]	; 0x30
 8002900:	2b12      	cmp	r3, #18
 8002902:	d107      	bne.n	8002914 <I2C_MasterRequestWrite+0x54>
 8002904:	68fb      	ldr	r3, [r7, #12]
 8002906:	681b      	ldr	r3, [r3, #0]
 8002908:	681a      	ldr	r2, [r3, #0]
 800290a:	68fb      	ldr	r3, [r7, #12]
 800290c:	681b      	ldr	r3, [r3, #0]
 800290e:	f442 7280 	orr.w	r2, r2, #256	; 0x100
 8002912:	601a      	str	r2, [r3, #0]
 8002914:	683b      	ldr	r3, [r7, #0]
 8002916:	9300      	str	r3, [sp, #0]
 8002918:	687b      	ldr	r3, [r7, #4]
 800291a:	2200      	movs	r2, #0
 800291c:	f04f 1101 	mov.w	r1, #65537	; 0x10001
 8002920:	68f8      	ldr	r0, [r7, #12]
 8002922:	f000 f84f 	bl	80029c4 <I2C_WaitOnFlagUntilTimeout>
 8002926:	4603      	mov	r3, r0
 8002928:	2b00      	cmp	r3, #0
 800292a:	d00d      	beq.n	8002948 <I2C_MasterRequestWrite+0x88>
 800292c:	68fb      	ldr	r3, [r7, #12]
 800292e:	681b      	ldr	r3, [r3, #0]
 8002930:	681b      	ldr	r3, [r3, #0]
 8002932:	f403 7380 	and.w	r3, r3, #256	; 0x100
 8002936:	f5b3 7f80 	cmp.w	r3, #256	; 0x100
 800293a:	d103      	bne.n	8002944 <I2C_MasterRequestWrite+0x84>
 800293c:	68fb      	ldr	r3, [r7, #12]
 800293e:	f44f 7200 	mov.w	r2, #512	; 0x200
 8002942:	641a      	str	r2, [r3, #64]	; 0x40
 8002944:	2303      	movs	r3, #3
 8002946:	e035      	b.n	80029b4 <I2C_MasterRequestWrite+0xf4>
 8002948:	68fb      	ldr	r3, [r7, #12]
 800294a:	691b      	ldr	r3, [r3, #16]
 800294c:	f5b3 4f80 	cmp.w	r3, #16384	; 0x4000
 8002950:	d108      	bne.n	8002964 <I2C_MasterRequestWrite+0xa4>
 8002952:	897b      	ldrh	r3, [r7, #10]
 8002954:	b2db      	uxtb	r3, r3
 8002956:	461a      	mov	r2, r3
 8002958:	68fb      	ldr	r3, [r7, #12]
 800295a:	681b      	ldr	r3, [r3, #0]
 800295c:	f002 02fe 	and.w	r2, r2, #254	; 0xfe
 8002960:	611a      	str	r2, [r3, #16]
 8002962:	e01b      	b.n	800299c <I2C_MasterRequestWrite+0xdc>
 8002964:	897b      	ldrh	r3, [r7, #10]
 8002966:	11db      	asrs	r3, r3, #7
 8002968:	b2db      	uxtb	r3, r3
 800296a:	f003 0306 	and.w	r3, r3, #6
 800296e:	b2db      	uxtb	r3, r3
 8002970:	f063 030f 	orn	r3, r3, #15
 8002974:	b2da      	uxtb	r2, r3
 8002976:	68fb      	ldr	r3, [r7, #12]
 8002978:	681b      	ldr	r3, [r3, #0]
 800297a:	611a      	str	r2, [r3, #16]
 800297c:	683b      	ldr	r3, [r7, #0]
 800297e:	687a      	ldr	r2, [r7, #4]
 8002980:	490e      	ldr	r1, [pc, #56]	; (80029bc <I2C_MasterRequestWrite+0xfc>)
 8002982:	68f8      	ldr	r0, [r7, #12]
 8002984:	f000 f898 	bl	8002ab8 <I2C_WaitOnMasterAddressFlagUntilTimeout>
 8002988:	4603      	mov	r3, r0
 800298a:	2b00      	cmp	r3, #0
 800298c:	d001      	beq.n	8002992 <I2C_MasterRequestWrite+0xd2>
 800298e:	2301      	movs	r3, #1
 8002990:	e010      	b.n	80029b4 <I2C_MasterRequestWrite+0xf4>
 8002992:	897b      	ldrh	r3, [r7, #10]
 8002994:	b2da      	uxtb	r2, r3
 8002996:	68fb      	ldr	r3, [r7, #12]
 8002998:	681b      	ldr	r3, [r3, #0]
 800299a:	611a      	str	r2, [r3, #16]
 800299c:	683b      	ldr	r3, [r7, #0]
 800299e:	687a      	ldr	r2, [r7, #4]
 80029a0:	4907      	ldr	r1, [pc, #28]	; (80029c0 <I2C_MasterRequestWrite+0x100>)
 80029a2:	68f8      	ldr	r0, [r7, #12]
 80029a4:	f000 f888 	bl	8002ab8 <I2C_WaitOnMasterAddressFlagUntilTimeout>
 80029a8:	4603      	mov	r3, r0
 80029aa:	2b00      	cmp	r3, #0
 80029ac:	d001      	beq.n	80029b2 <I2C_MasterRequestWrite+0xf2>
 80029ae:	2301      	movs	r3, #1
 80029b0:	e000      	b.n	80029b4 <I2C_MasterRequestWrite+0xf4>
 80029b2:	2300      	movs	r3, #0
 80029b4:	4618      	mov	r0, r3
 80029b6:	3718      	adds	r7, #24
 80029b8:	46bd      	mov	sp, r7
 80029ba:	bd80      	pop	{r7, pc}
 80029bc:	00010008 	.word	0x00010008
 80029c0:	00010002 	.word	0x00010002

080029c4 <I2C_WaitOnFlagUntilTimeout>:
 80029c4:	b580      	push	{r7, lr}
 80029c6:	b084      	sub	sp, #16
 80029c8:	af00      	add	r7, sp, #0
 80029ca:	60f8      	str	r0, [r7, #12]
 80029cc:	60b9      	str	r1, [r7, #8]
 80029ce:	603b      	str	r3, [r7, #0]
 80029d0:	4613      	mov	r3, r2
 80029d2:	71fb      	strb	r3, [r7, #7]
 80029d4:	e048      	b.n	8002a68 <I2C_WaitOnFlagUntilTimeout+0xa4>
 80029d6:	683b      	ldr	r3, [r7, #0]
 80029d8:	f1b3 3fff 	cmp.w	r3, #4294967295	; 0xffffffff
 80029dc:	d044      	beq.n	8002a68 <I2C_WaitOnFlagUntilTimeout+0xa4>
 80029de:	f7fe fa99 	bl	8000f14 <HAL_GetTick>
 80029e2:	4602      	mov	r2, r0
 80029e4:	69bb      	ldr	r3, [r7, #24]
 80029e6:	1ad3      	subs	r3, r2, r3
 80029e8:	683a      	ldr	r2, [r7, #0]
 80029ea:	429a      	cmp	r2, r3
 80029ec:	d302      	bcc.n	80029f4 <I2C_WaitOnFlagUntilTimeout+0x30>
 80029ee:	683b      	ldr	r3, [r7, #0]
 80029f0:	2b00      	cmp	r3, #0
 80029f2:	d139      	bne.n	8002a68 <I2C_WaitOnFlagUntilTimeout+0xa4>
 80029f4:	68bb      	ldr	r3, [r7, #8]
 80029f6:	0c1b      	lsrs	r3, r3, #16
 80029f8:	b2db      	uxtb	r3, r3
 80029fa:	2b01      	cmp	r3, #1
 80029fc:	d10d      	bne.n	8002a1a <I2C_WaitOnFlagUntilTimeout+0x56>
 80029fe:	68fb      	ldr	r3, [r7, #12]
 8002a00:	681b      	ldr	r3, [r3, #0]
 8002a02:	695b      	ldr	r3, [r3, #20]
 8002a04:	43da      	mvns	r2, r3
 8002a06:	68bb      	ldr	r3, [r7, #8]
 8002a08:	4013      	ands	r3, r2
 8002a0a:	b29b      	uxth	r3, r3
 8002a0c:	2b00      	cmp	r3, #0
 8002a0e:	bf0c      	ite	eq
 8002a10:	2301      	moveq	r3, #1
 8002a12:	2300      	movne	r3, #0
 8002a14:	b2db      	uxtb	r3, r3
 8002a16:	461a      	mov	r2, r3
 8002a18:	e00c      	b.n	8002a34 <I2C_WaitOnFlagUntilTimeout+0x70>
 8002a1a:	68fb      	ldr	r3, [r7, #12]
 8002a1c:	681b      	ldr	r3, [r3, #0]
 8002a1e:	699b      	ldr	r3, [r3, #24]
 8002a20:	43da      	mvns	r2, r3
 8002a22:	68bb      	ldr	r3, [r7, #8]
 8002a24:	4013      	ands	r3, r2
 8002a26:	b29b      	uxth	r3, r3
 8002a28:	2b00      	cmp	r3, #0
 8002a2a:	bf0c      	ite	eq
 8002a2c:	2301      	moveq	r3, #1
 8002a2e:	2300      	movne	r3, #0
 8002a30:	b2db      	uxtb	r3, r3
 8002a32:	461a      	mov	r2, r3
 8002a34:	79fb      	ldrb	r3, [r7, #7]
 8002a36:	429a      	cmp	r2, r3
 8002a38:	d116      	bne.n	8002a68 <I2C_WaitOnFlagUntilTimeout+0xa4>
 8002a3a:	68fb      	ldr	r3, [r7, #12]
 8002a3c:	2200      	movs	r2, #0
 8002a3e:	631a      	str	r2, [r3, #48]	; 0x30
 8002a40:	68fb      	ldr	r3, [r7, #12]
 8002a42:	2220      	movs	r2, #32
 8002a44:	f883 203d 	strb.w	r2, [r3, #61]	; 0x3d
 8002a48:	68fb      	ldr	r3, [r7, #12]
 8002a4a:	2200      	movs	r2, #0
 8002a4c:	f883 203e 	strb.w	r2, [r3, #62]	; 0x3e
 8002a50:	68fb      	ldr	r3, [r7, #12]
 8002a52:	6c1b      	ldr	r3, [r3, #64]	; 0x40
 8002a54:	f043 0220 	orr.w	r2, r3, #32
 8002a58:	68fb      	ldr	r3, [r7, #12]
 8002a5a:	641a      	str	r2, [r3, #64]	; 0x40
 8002a5c:	68fb      	ldr	r3, [r7, #12]
 8002a5e:	2200      	movs	r2, #0
 8002a60:	f883 203c 	strb.w	r2, [r3, #60]	; 0x3c
 8002a64:	2301      	movs	r3, #1
 8002a66:	e023      	b.n	8002ab0 <I2C_WaitOnFlagUntilTimeout+0xec>
 8002a68:	68bb      	ldr	r3, [r7, #8]
 8002a6a:	0c1b      	lsrs	r3, r3, #16
 8002a6c:	b2db      	uxtb	r3, r3
 8002a6e:	2b01      	cmp	r3, #1
 8002a70:	d10d      	bne.n	8002a8e <I2C_WaitOnFlagUntilTimeout+0xca>
 8002a72:	68fb      	ldr	r3, [r7, #12]
 8002a74:	681b      	ldr	r3, [r3, #0]
 8002a76:	695b      	ldr	r3, [r3, #20]
 8002a78:	43da      	mvns	r2, r3
 8002a7a:	68bb      	ldr	r3, [r7, #8]
 8002a7c:	4013      	ands	r3, r2
 8002a7e:	b29b      	uxth	r3, r3
 8002a80:	2b00      	cmp	r3, #0
 8002a82:	bf0c      	ite	eq
 8002a84:	2301      	moveq	r3, #1
 8002a86:	2300      	movne	r3, #0
 8002a88:	b2db      	uxtb	r3, r3
 8002a8a:	461a      	mov	r2, r3
 8002a8c:	e00c      	b.n	8002aa8 <I2C_WaitOnFlagUntilTimeout+0xe4>
 8002a8e:	68fb      	ldr	r3, [r7, #12]
 8002a90:	681b      	ldr	r3, [r3, #0]
 8002a92:	699b      	ldr	r3, [r3, #24]
 8002a94:	43da      	mvns	r2, r3
 8002a96:	68bb      	ldr	r3, [r7, #8]
 8002a98:	4013      	ands	r3, r2
 8002a9a:	b29b      	uxth	r3, r3
 8002a9c:	2b00      	cmp	r3, #0
 8002a9e:	bf0c      	ite	eq
 8002aa0:	2301      	moveq	r3, #1
 8002aa2:	2300      	movne	r3, #0
 8002aa4:	b2db      	uxtb	r3, r3
 8002aa6:	461a      	mov	r2, r3
 8002aa8:	79fb      	ldrb	r3, [r7, #7]
 8002aaa:	429a      	cmp	r2, r3
 8002aac:	d093      	beq.n	80029d6 <I2C_WaitOnFlagUntilTimeout+0x12>
 8002aae:	2300      	movs	r3, #0
 8002ab0:	4618      	mov	r0, r3
 8002ab2:	3710      	adds	r7, #16
 8002ab4:	46bd      	mov	sp, r7
 8002ab6:	bd80      	pop	{r7, pc}

08002ab8 <I2C_WaitOnMasterAddressFlagUntilTimeout>:
 8002ab8:	b580      	push	{r7, lr}
 8002aba:	b084      	sub	sp, #16
 8002abc:	af00      	add	r7, sp, #0
 8002abe:	60f8      	str	r0, [r7, #12]
 8002ac0:	60b9      	str	r1, [r7, #8]
 8002ac2:	607a      	str	r2, [r7, #4]
 8002ac4:	603b      	str	r3, [r7, #0]
 8002ac6:	e071      	b.n	8002bac <I2C_WaitOnMasterAddressFlagUntilTimeout+0xf4>
 8002ac8:	68fb      	ldr	r3, [r7, #12]
 8002aca:	681b      	ldr	r3, [r3, #0]
 8002acc:	695b      	ldr	r3, [r3, #20]
 8002ace:	f403 6380 	and.w	r3, r3, #1024	; 0x400
 8002ad2:	f5b3 6f80 	cmp.w	r3, #1024	; 0x400
 8002ad6:	d123      	bne.n	8002b20 <I2C_WaitOnMasterAddressFlagUntilTimeout+0x68>
 8002ad8:	68fb      	ldr	r3, [r7, #12]
 8002ada:	681b      	ldr	r3, [r3, #0]
 8002adc:	681a      	ldr	r2, [r3, #0]
 8002ade:	68fb      	ldr	r3, [r7, #12]
 8002ae0:	681b      	ldr	r3, [r3, #0]
 8002ae2:	f442 7200 	orr.w	r2, r2, #512	; 0x200
 8002ae6:	601a      	str	r2, [r3, #0]
 8002ae8:	68fb      	ldr	r3, [r7, #12]
 8002aea:	681b      	ldr	r3, [r3, #0]
 8002aec:	f46f 6280 	mvn.w	r2, #1024	; 0x400
 8002af0:	615a      	str	r2, [r3, #20]
 8002af2:	68fb      	ldr	r3, [r7, #12]
 8002af4:	2200      	movs	r2, #0
 8002af6:	631a      	str	r2, [r3, #48]	; 0x30
 8002af8:	68fb      	ldr	r3, [r7, #12]
 8002afa:	2220      	movs	r2, #32
 8002afc:	f883 203d 	strb.w	r2, [r3, #61]	; 0x3d
 8002b00:	68fb      	ldr	r3, [r7, #12]
 8002b02:	2200      	movs	r2, #0
 8002b04:	f883 203e 	strb.w	r2, [r3, #62]	; 0x3e
 8002b08:	68fb      	ldr	r3, [r7, #12]
 8002b0a:	6c1b      	ldr	r3, [r3, #64]	; 0x40
 8002b0c:	f043 0204 	orr.w	r2, r3, #4
 8002b10:	68fb      	ldr	r3, [r7, #12]
 8002b12:	641a      	str	r2, [r3, #64]	; 0x40
 8002b14:	68fb      	ldr	r3, [r7, #12]
 8002b16:	2200      	movs	r2, #0
 8002b18:	f883 203c 	strb.w	r2, [r3, #60]	; 0x3c
 8002b1c:	2301      	movs	r3, #1
 8002b1e:	e067      	b.n	8002bf0 <I2C_WaitOnMasterAddressFlagUntilTimeout+0x138>
 8002b20:	687b      	ldr	r3, [r7, #4]
 8002b22:	f1b3 3fff 	cmp.w	r3, #4294967295	; 0xffffffff
 8002b26:	d041      	beq.n	8002bac <I2C_WaitOnMasterAddressFlagUntilTimeout+0xf4>
 8002b28:	f7fe f9f4 	bl	8000f14 <HAL_GetTick>
 8002b2c:	4602      	mov	r2, r0
 8002b2e:	683b      	ldr	r3, [r7, #0]
 8002b30:	1ad3      	subs	r3, r2, r3
 8002b32:	687a      	ldr	r2, [r7, #4]
 8002b34:	429a      	cmp	r2, r3
 8002b36:	d302      	bcc.n	8002b3e <I2C_WaitOnMasterAddressFlagUntilTimeout+0x86>
 8002b38:	687b      	ldr	r3, [r7, #4]
 8002b3a:	2b00      	cmp	r3, #0
 8002b3c:	d136      	bne.n	8002bac <I2C_WaitOnMasterAddressFlagUntilTimeout+0xf4>
 8002b3e:	68bb      	ldr	r3, [r7, #8]
 8002b40:	0c1b      	lsrs	r3, r3, #16
 8002b42:	b2db      	uxtb	r3, r3
 8002b44:	2b01      	cmp	r3, #1
 8002b46:	d10c      	bne.n	8002b62 <I2C_WaitOnMasterAddressFlagUntilTimeout+0xaa>
 8002b48:	68fb      	ldr	r3, [r7, #12]
 8002b4a:	681b      	ldr	r3, [r3, #0]
 8002b4c:	695b      	ldr	r3, [r3, #20]
 8002b4e:	43da      	mvns	r2, r3
 8002b50:	68bb      	ldr	r3, [r7, #8]
 8002b52:	4013      	ands	r3, r2
 8002b54:	b29b      	uxth	r3, r3
 8002b56:	2b00      	cmp	r3, #0
 8002b58:	bf14      	ite	ne
 8002b5a:	2301      	movne	r3, #1
 8002b5c:	2300      	moveq	r3, #0
 8002b5e:	b2db      	uxtb	r3, r3
 8002b60:	e00b      	b.n	8002b7a <I2C_WaitOnMasterAddressFlagUntilTimeout+0xc2>
 8002b62:	68fb      	ldr	r3, [r7, #12]
 8002b64:	681b      	ldr	r3, [r3, #0]
 8002b66:	699b      	ldr	r3, [r3, #24]
 8002b68:	43da      	mvns	r2, r3
 8002b6a:	68bb      	ldr	r3, [r7, #8]
 8002b6c:	4013      	ands	r3, r2
 8002b6e:	b29b      	uxth	r3, r3
 8002b70:	2b00      	cmp	r3, #0
 8002b72:	bf14      	ite	ne
 8002b74:	2301      	movne	r3, #1
 8002b76:	2300      	moveq	r3, #0
 8002b78:	b2db      	uxtb	r3, r3
 8002b7a:	2b00      	cmp	r3, #0
 8002b7c:	d016      	beq.n	8002bac <I2C_WaitOnMasterAddressFlagUntilTimeout+0xf4>
 8002b7e:	68fb      	ldr	r3, [r7, #12]
 8002b80:	2200      	movs	r2, #0
 8002b82:	631a      	str	r2, [r3, #48]	; 0x30
 8002b84:	68fb      	ldr	r3, [r7, #12]
 8002b86:	2220      	movs	r2, #32
 8002b88:	f883 203d 	strb.w	r2, [r3, #61]	; 0x3d
 8002b8c:	68fb      	ldr	r3, [r7, #12]
 8002b8e:	2200      	movs	r2, #0
 8002b90:	f883 203e 	strb.w	r2, [r3, #62]	; 0x3e
 8002b94:	68fb      	ldr	r3, [r7, #12]
 8002b96:	6c1b      	ldr	r3, [r3, #64]	; 0x40
 8002b98:	f043 0220 	orr.w	r2, r3, #32
 8002b9c:	68fb      	ldr	r3, [r7, #12]
 8002b9e:	641a      	str	r2, [r3, #64]	; 0x40
 8002ba0:	68fb      	ldr	r3, [r7, #12]
 8002ba2:	2200      	movs	r2, #0
 8002ba4:	f883 203c 	strb.w	r2, [r3, #60]	; 0x3c
 8002ba8:	2301      	movs	r3, #1
 8002baa:	e021      	b.n	8002bf0 <I2C_WaitOnMasterAddressFlagUntilTimeout+0x138>
 8002bac:	68bb      	ldr	r3, [r7, #8]
 8002bae:	0c1b      	lsrs	r3, r3, #16
 8002bb0:	b2db      	uxtb	r3, r3
 8002bb2:	2b01      	cmp	r3, #1
 8002bb4:	d10c      	bne.n	8002bd0 <I2C_WaitOnMasterAddressFlagUntilTimeout+0x118>
 8002bb6:	68fb      	ldr	r3, [r7, #12]
 8002bb8:	681b      	ldr	r3, [r3, #0]
 8002bba:	695b      	ldr	r3, [r3, #20]
 8002bbc:	43da      	mvns	r2, r3
 8002bbe:	68bb      	ldr	r3, [r7, #8]
 8002bc0:	4013      	ands	r3, r2
 8002bc2:	b29b      	uxth	r3, r3
 8002bc4:	2b00      	cmp	r3, #0
 8002bc6:	bf14      	ite	ne
 8002bc8:	2301      	movne	r3, #1
 8002bca:	2300      	moveq	r3, #0
 8002bcc:	b2db      	uxtb	r3, r3
 8002bce:	e00b      	b.n	8002be8 <I2C_WaitOnMasterAddressFlagUntilTimeout+0x130>
 8002bd0:	68fb      	ldr	r3, [r7, #12]
 8002bd2:	681b      	ldr	r3, [r3, #0]
 8002bd4:	699b      	ldr	r3, [r3, #24]
 8002bd6:	43da      	mvns	r2, r3
 8002bd8:	68bb      	ldr	r3, [r7, #8]
 8002bda:	4013      	ands	r3, r2
 8002bdc:	b29b      	uxth	r3, r3
 8002bde:	2b00      	cmp	r3, #0
 8002be0:	bf14      	ite	ne
 8002be2:	2301      	movne	r3, #1
 8002be4:	2300      	moveq	r3, #0
 8002be6:	b2db      	uxtb	r3, r3
 8002be8:	2b00      	cmp	r3, #0
 8002bea:	f47f af6d 	bne.w	8002ac8 <I2C_WaitOnMasterAddressFlagUntilTimeout+0x10>
 8002bee:	2300      	movs	r3, #0
 8002bf0:	4618      	mov	r0, r3
 8002bf2:	3710      	adds	r7, #16
 8002bf4:	46bd      	mov	sp, r7
 8002bf6:	bd80      	pop	{r7, pc}

08002bf8 <I2C_WaitOnTXEFlagUntilTimeout>:
 8002bf8:	b580      	push	{r7, lr}
 8002bfa:	b084      	sub	sp, #16
 8002bfc:	af00      	add	r7, sp, #0
 8002bfe:	60f8      	str	r0, [r7, #12]
 8002c00:	60b9      	str	r1, [r7, #8]
 8002c02:	607a      	str	r2, [r7, #4]
 8002c04:	e034      	b.n	8002c70 <I2C_WaitOnTXEFlagUntilTimeout+0x78>
 8002c06:	68f8      	ldr	r0, [r7, #12]
 8002c08:	f000 f886 	bl	8002d18 <I2C_IsAcknowledgeFailed>
 8002c0c:	4603      	mov	r3, r0
 8002c0e:	2b00      	cmp	r3, #0
 8002c10:	d001      	beq.n	8002c16 <I2C_WaitOnTXEFlagUntilTimeout+0x1e>
 8002c12:	2301      	movs	r3, #1
 8002c14:	e034      	b.n	8002c80 <I2C_WaitOnTXEFlagUntilTimeout+0x88>
 8002c16:	68bb      	ldr	r3, [r7, #8]
 8002c18:	f1b3 3fff 	cmp.w	r3, #4294967295	; 0xffffffff
 8002c1c:	d028      	beq.n	8002c70 <I2C_WaitOnTXEFlagUntilTimeout+0x78>
 8002c1e:	f7fe f979 	bl	8000f14 <HAL_GetTick>
 8002c22:	4602      	mov	r2, r0
 8002c24:	687b      	ldr	r3, [r7, #4]
 8002c26:	1ad3      	subs	r3, r2, r3
 8002c28:	68ba      	ldr	r2, [r7, #8]
 8002c2a:	429a      	cmp	r2, r3
 8002c2c:	d302      	bcc.n	8002c34 <I2C_WaitOnTXEFlagUntilTimeout+0x3c>
 8002c2e:	68bb      	ldr	r3, [r7, #8]
 8002c30:	2b00      	cmp	r3, #0
 8002c32:	d11d      	bne.n	8002c70 <I2C_WaitOnTXEFlagUntilTimeout+0x78>
 8002c34:	68fb      	ldr	r3, [r7, #12]
 8002c36:	681b      	ldr	r3, [r3, #0]
 8002c38:	695b      	ldr	r3, [r3, #20]
 8002c3a:	f003 0380 	and.w	r3, r3, #128	; 0x80
 8002c3e:	2b80      	cmp	r3, #128	; 0x80
 8002c40:	d016      	beq.n	8002c70 <I2C_WaitOnTXEFlagUntilTimeout+0x78>
 8002c42:	68fb      	ldr	r3, [r7, #12]
 8002c44:	2200      	movs	r2, #0
 8002c46:	631a      	str	r2, [r3, #48]	; 0x30
 8002c48:	68fb      	ldr	r3, [r7, #12]
 8002c4a:	2220      	movs	r2, #32
 8002c4c:	f883 203d 	strb.w	r2, [r3, #61]	; 0x3d
 8002c50:	68fb      	ldr	r3, [r7, #12]
 8002c52:	2200      	movs	r2, #0
 8002c54:	f883 203e 	strb.w	r2, [r3, #62]	; 0x3e
 8002c58:	68fb      	ldr	r3, [r7, #12]
 8002c5a:	6c1b      	ldr	r3, [r3, #64]	; 0x40
 8002c5c:	f043 0220 	orr.w	r2, r3, #32
 8002c60:	68fb      	ldr	r3, [r7, #12]
 8002c62:	641a      	str	r2, [r3, #64]	; 0x40
 8002c64:	68fb      	ldr	r3, [r7, #12]
 8002c66:	2200      	movs	r2, #0
 8002c68:	f883 203c 	strb.w	r2, [r3, #60]	; 0x3c
 8002c6c:	2301      	movs	r3, #1
 8002c6e:	e007      	b.n	8002c80 <I2C_WaitOnTXEFlagUntilTimeout+0x88>
 8002c70:	68fb      	ldr	r3, [r7, #12]
 8002c72:	681b      	ldr	r3, [r3, #0]
 8002c74:	695b      	ldr	r3, [r3, #20]
 8002c76:	f003 0380 	and.w	r3, r3, #128	; 0x80
 8002c7a:	2b80      	cmp	r3, #128	; 0x80
 8002c7c:	d1c3      	bne.n	8002c06 <I2C_WaitOnTXEFlagUntilTimeout+0xe>
 8002c7e:	2300      	movs	r3, #0
 8002c80:	4618      	mov	r0, r3
 8002c82:	3710      	adds	r7, #16
 8002c84:	46bd      	mov	sp, r7
 8002c86:	bd80      	pop	{r7, pc}

08002c88 <I2C_WaitOnBTFFlagUntilTimeout>:
 8002c88:	b580      	push	{r7, lr}
 8002c8a:	b084      	sub	sp, #16
 8002c8c:	af00      	add	r7, sp, #0
 8002c8e:	60f8      	str	r0, [r7, #12]
 8002c90:	60b9      	str	r1, [r7, #8]
 8002c92:	607a      	str	r2, [r7, #4]
 8002c94:	e034      	b.n	8002d00 <I2C_WaitOnBTFFlagUntilTimeout+0x78>
 8002c96:	68f8      	ldr	r0, [r7, #12]
 8002c98:	f000 f83e 	bl	8002d18 <I2C_IsAcknowledgeFailed>
 8002c9c:	4603      	mov	r3, r0
 8002c9e:	2b00      	cmp	r3, #0
 8002ca0:	d001      	beq.n	8002ca6 <I2C_WaitOnBTFFlagUntilTimeout+0x1e>
 8002ca2:	2301      	movs	r3, #1
 8002ca4:	e034      	b.n	8002d10 <I2C_WaitOnBTFFlagUntilTimeout+0x88>
 8002ca6:	68bb      	ldr	r3, [r7, #8]
 8002ca8:	f1b3 3fff 	cmp.w	r3, #4294967295	; 0xffffffff
 8002cac:	d028      	beq.n	8002d00 <I2C_WaitOnBTFFlagUntilTimeout+0x78>
 8002cae:	f7fe f931 	bl	8000f14 <HAL_GetTick>
 8002cb2:	4602      	mov	r2, r0
 8002cb4:	687b      	ldr	r3, [r7, #4]
 8002cb6:	1ad3      	subs	r3, r2, r3
 8002cb8:	68ba      	ldr	r2, [r7, #8]
 8002cba:	429a      	cmp	r2, r3
 8002cbc:	d302      	bcc.n	8002cc4 <I2C_WaitOnBTFFlagUntilTimeout+0x3c>
 8002cbe:	68bb      	ldr	r3, [r7, #8]
 8002cc0:	2b00      	cmp	r3, #0
 8002cc2:	d11d      	bne.n	8002d00 <I2C_WaitOnBTFFlagUntilTimeout+0x78>
 8002cc4:	68fb      	ldr	r3, [r7, #12]
 8002cc6:	681b      	ldr	r3, [r3, #0]
 8002cc8:	695b      	ldr	r3, [r3, #20]
 8002cca:	f003 0304 	and.w	r3, r3, #4
 8002cce:	2b04      	cmp	r3, #4
 8002cd0:	d016      	beq.n	8002d00 <I2C_WaitOnBTFFlagUntilTimeout+0x78>
 8002cd2:	68fb      	ldr	r3, [r7, #12]
 8002cd4:	2200      	movs	r2, #0
 8002cd6:	631a      	str	r2, [r3, #48]	; 0x30
 8002cd8:	68fb      	ldr	r3, [r7, #12]
 8002cda:	2220      	movs	r2, #32
 8002cdc:	f883 203d 	strb.w	r2, [r3, #61]	; 0x3d
 8002ce0:	68fb      	ldr	r3, [r7, #12]
 8002ce2:	2200      	movs	r2, #0
 8002ce4:	f883 203e 	strb.w	r2, [r3, #62]	; 0x3e
 8002ce8:	68fb      	ldr	r3, [r7, #12]
 8002cea:	6c1b      	ldr	r3, [r3, #64]	; 0x40
 8002cec:	f043 0220 	orr.w	r2, r3, #32
 8002cf0:	68fb      	ldr	r3, [r7, #12]
 8002cf2:	641a      	str	r2, [r3, #64]	; 0x40
 8002cf4:	68fb      	ldr	r3, [r7, #12]
 8002cf6:	2200      	movs	r2, #0
 8002cf8:	f883 203c 	strb.w	r2, [r3, #60]	; 0x3c
 8002cfc:	2301      	movs	r3, #1
 8002cfe:	e007      	b.n	8002d10 <I2C_WaitOnBTFFlagUntilTimeout+0x88>
 8002d00:	68fb      	ldr	r3, [r7, #12]
 8002d02:	681b      	ldr	r3, [r3, #0]
 8002d04:	695b      	ldr	r3, [r3, #20]
 8002d06:	f003 0304 	and.w	r3, r3, #4
 8002d0a:	2b04      	cmp	r3, #4
 8002d0c:	d1c3      	bne.n	8002c96 <I2C_WaitOnBTFFlagUntilTimeout+0xe>
 8002d0e:	2300      	movs	r3, #0
 8002d10:	4618      	mov	r0, r3
 8002d12:	3710      	adds	r7, #16
 8002d14:	46bd      	mov	sp, r7
 8002d16:	bd80      	pop	{r7, pc}

08002d18 <I2C_IsAcknowledgeFailed>:
 8002d18:	b480      	push	{r7}
 8002d1a:	b083      	sub	sp, #12
 8002d1c:	af00      	add	r7, sp, #0
 8002d1e:	6078      	str	r0, [r7, #4]
 8002d20:	687b      	ldr	r3, [r7, #4]
 8002d22:	681b      	ldr	r3, [r3, #0]
 8002d24:	695b      	ldr	r3, [r3, #20]
 8002d26:	f403 6380 	and.w	r3, r3, #1024	; 0x400
 8002d2a:	f5b3 6f80 	cmp.w	r3, #1024	; 0x400
 8002d2e:	d11b      	bne.n	8002d68 <I2C_IsAcknowledgeFailed+0x50>
 8002d30:	687b      	ldr	r3, [r7, #4]
 8002d32:	681b      	ldr	r3, [r3, #0]
 8002d34:	f46f 6280 	mvn.w	r2, #1024	; 0x400
 8002d38:	615a      	str	r2, [r3, #20]
 8002d3a:	687b      	ldr	r3, [r7, #4]
 8002d3c:	2200      	movs	r2, #0
 8002d3e:	631a      	str	r2, [r3, #48]	; 0x30
 8002d40:	687b      	ldr	r3, [r7, #4]
 8002d42:	2220      	movs	r2, #32
 8002d44:	f883 203d 	strb.w	r2, [r3, #61]	; 0x3d
 8002d48:	687b      	ldr	r3, [r7, #4]
 8002d4a:	2200      	movs	r2, #0
 8002d4c:	f883 203e 	strb.w	r2, [r3, #62]	; 0x3e
 8002d50:	687b      	ldr	r3, [r7, #4]
 8002d52:	6c1b      	ldr	r3, [r3, #64]	; 0x40
 8002d54:	f043 0204 	orr.w	r2, r3, #4
 8002d58:	687b      	ldr	r3, [r7, #4]
 8002d5a:	641a      	str	r2, [r3, #64]	; 0x40
 8002d5c:	687b      	ldr	r3, [r7, #4]
 8002d5e:	2200      	movs	r2, #0
 8002d60:	f883 203c 	strb.w	r2, [r3, #60]	; 0x3c
 8002d64:	2301      	movs	r3, #1
 8002d66:	e000      	b.n	8002d6a <I2C_IsAcknowledgeFailed+0x52>
 8002d68:	2300      	movs	r3, #0
 8002d6a:	4618      	mov	r0, r3
 8002d6c:	370c      	adds	r7, #12
 8002d6e:	46bd      	mov	sp, r7
 8002d70:	bc80      	pop	{r7}
 8002d72:	4770      	bx	lr

08002d74 <HAL_RCC_OscConfig>:
 8002d74:	b580      	push	{r7, lr}
 8002d76:	b086      	sub	sp, #24
 8002d78:	af00      	add	r7, sp, #0
 8002d7a:	6078      	str	r0, [r7, #4]
 8002d7c:	687b      	ldr	r3, [r7, #4]
 8002d7e:	2b00      	cmp	r3, #0
 8002d80:	d101      	bne.n	8002d86 <HAL_RCC_OscConfig+0x12>
 8002d82:	2301      	movs	r3, #1
 8002d84:	e272      	b.n	800326c <HAL_RCC_OscConfig+0x4f8>
 8002d86:	687b      	ldr	r3, [r7, #4]
 8002d88:	681b      	ldr	r3, [r3, #0]
 8002d8a:	f003 0301 	and.w	r3, r3, #1
 8002d8e:	2b00      	cmp	r3, #0
 8002d90:	f000 8087 	beq.w	8002ea2 <HAL_RCC_OscConfig+0x12e>
 8002d94:	4b92      	ldr	r3, [pc, #584]	; (8002fe0 <HAL_RCC_OscConfig+0x26c>)
 8002d96:	685b      	ldr	r3, [r3, #4]
 8002d98:	f003 030c 	and.w	r3, r3, #12
 8002d9c:	2b04      	cmp	r3, #4
 8002d9e:	d00c      	beq.n	8002dba <HAL_RCC_OscConfig+0x46>
 8002da0:	4b8f      	ldr	r3, [pc, #572]	; (8002fe0 <HAL_RCC_OscConfig+0x26c>)
 8002da2:	685b      	ldr	r3, [r3, #4]
 8002da4:	f003 030c 	and.w	r3, r3, #12
 8002da8:	2b08      	cmp	r3, #8
 8002daa:	d112      	bne.n	8002dd2 <HAL_RCC_OscConfig+0x5e>
 8002dac:	4b8c      	ldr	r3, [pc, #560]	; (8002fe0 <HAL_RCC_OscConfig+0x26c>)
 8002dae:	685b      	ldr	r3, [r3, #4]
 8002db0:	f403 3380 	and.w	r3, r3, #65536	; 0x10000
 8002db4:	f5b3 3f80 	cmp.w	r3, #65536	; 0x10000
 8002db8:	d10b      	bne.n	8002dd2 <HAL_RCC_OscConfig+0x5e>
 8002dba:	4b89      	ldr	r3, [pc, #548]	; (8002fe0 <HAL_RCC_OscConfig+0x26c>)
 8002dbc:	681b      	ldr	r3, [r3, #0]
 8002dbe:	f403 3300 	and.w	r3, r3, #131072	; 0x20000
 8002dc2:	2b00      	cmp	r3, #0
 8002dc4:	d06c      	beq.n	8002ea0 <HAL_RCC_OscConfig+0x12c>
 8002dc6:	687b      	ldr	r3, [r7, #4]
 8002dc8:	685b      	ldr	r3, [r3, #4]
 8002dca:	2b00      	cmp	r3, #0
 8002dcc:	d168      	bne.n	8002ea0 <HAL_RCC_OscConfig+0x12c>
 8002dce:	2301      	movs	r3, #1
 8002dd0:	e24c      	b.n	800326c <HAL_RCC_OscConfig+0x4f8>
 8002dd2:	687b      	ldr	r3, [r7, #4]
 8002dd4:	685b      	ldr	r3, [r3, #4]
 8002dd6:	f5b3 3f80 	cmp.w	r3, #65536	; 0x10000
 8002dda:	d106      	bne.n	8002dea <HAL_RCC_OscConfig+0x76>
 8002ddc:	4b80      	ldr	r3, [pc, #512]	; (8002fe0 <HAL_RCC_OscConfig+0x26c>)
 8002dde:	681b      	ldr	r3, [r3, #0]
 8002de0:	4a7f      	ldr	r2, [pc, #508]	; (8002fe0 <HAL_RCC_OscConfig+0x26c>)
 8002de2:	f443 3380 	orr.w	r3, r3, #65536	; 0x10000
 8002de6:	6013      	str	r3, [r2, #0]
 8002de8:	e02e      	b.n	8002e48 <HAL_RCC_OscConfig+0xd4>
 8002dea:	687b      	ldr	r3, [r7, #4]
 8002dec:	685b      	ldr	r3, [r3, #4]
 8002dee:	2b00      	cmp	r3, #0
 8002df0:	d10c      	bne.n	8002e0c <HAL_RCC_OscConfig+0x98>
 8002df2:	4b7b      	ldr	r3, [pc, #492]	; (8002fe0 <HAL_RCC_OscConfig+0x26c>)
 8002df4:	681b      	ldr	r3, [r3, #0]
 8002df6:	4a7a      	ldr	r2, [pc, #488]	; (8002fe0 <HAL_RCC_OscConfig+0x26c>)
 8002df8:	f423 3380 	bic.w	r3, r3, #65536	; 0x10000
 8002dfc:	6013      	str	r3, [r2, #0]
 8002dfe:	4b78      	ldr	r3, [pc, #480]	; (8002fe0 <HAL_RCC_OscConfig+0x26c>)
 8002e00:	681b      	ldr	r3, [r3, #0]
 8002e02:	4a77      	ldr	r2, [pc, #476]	; (8002fe0 <HAL_RCC_OscConfig+0x26c>)
 8002e04:	f423 2380 	bic.w	r3, r3, #262144	; 0x40000
 8002e08:	6013      	str	r3, [r2, #0]
 8002e0a:	e01d      	b.n	8002e48 <HAL_RCC_OscConfig+0xd4>
 8002e0c:	687b      	ldr	r3, [r7, #4]
 8002e0e:	685b      	ldr	r3, [r3, #4]
 8002e10:	f5b3 2fa0 	cmp.w	r3, #327680	; 0x50000
 8002e14:	d10c      	bne.n	8002e30 <HAL_RCC_OscConfig+0xbc>
 8002e16:	4b72      	ldr	r3, [pc, #456]	; (8002fe0 <HAL_RCC_OscConfig+0x26c>)
 8002e18:	681b      	ldr	r3, [r3, #0]
 8002e1a:	4a71      	ldr	r2, [pc, #452]	; (8002fe0 <HAL_RCC_OscConfig+0x26c>)
 8002e1c:	f443 2380 	orr.w	r3, r3, #262144	; 0x40000
 8002e20:	6013      	str	r3, [r2, #0]
 8002e22:	4b6f      	ldr	r3, [pc, #444]	; (8002fe0 <HAL_RCC_OscConfig+0x26c>)
 8002e24:	681b      	ldr	r3, [r3, #0]
 8002e26:	4a6e      	ldr	r2, [pc, #440]	; (8002fe0 <HAL_RCC_OscConfig+0x26c>)
 8002e28:	f443 3380 	orr.w	r3, r3, #65536	; 0x10000
 8002e2c:	6013      	str	r3, [r2, #0]
 8002e2e:	e00b      	b.n	8002e48 <HAL_RCC_OscConfig+0xd4>
 8002e30:	4b6b      	ldr	r3, [pc, #428]	; (8002fe0 <HAL_RCC_OscConfig+0x26c>)
 8002e32:	681b      	ldr	r3, [r3, #0]
 8002e34:	4a6a      	ldr	r2, [pc, #424]	; (8002fe0 <HAL_RCC_OscConfig+0x26c>)
 8002e36:	f423 3380 	bic.w	r3, r3, #65536	; 0x10000
 8002e3a:	6013      	str	r3, [r2, #0]
 8002e3c:	4b68      	ldr	r3, [pc, #416]	; (8002fe0 <HAL_RCC_OscConfig+0x26c>)
 8002e3e:	681b      	ldr	r3, [r3, #0]
 8002e40:	4a67      	ldr	r2, [pc, #412]	; (8002fe0 <HAL_RCC_OscConfig+0x26c>)
 8002e42:	f423 2380 	bic.w	r3, r3, #262144	; 0x40000
 8002e46:	6013      	str	r3, [r2, #0]
 8002e48:	687b      	ldr	r3, [r7, #4]
 8002e4a:	685b      	ldr	r3, [r3, #4]
 8002e4c:	2b00      	cmp	r3, #0
 8002e4e:	d013      	beq.n	8002e78 <HAL_RCC_OscConfig+0x104>
 8002e50:	f7fe f860 	bl	8000f14 <HAL_GetTick>
 8002e54:	6138      	str	r0, [r7, #16]
 8002e56:	e008      	b.n	8002e6a <HAL_RCC_OscConfig+0xf6>
 8002e58:	f7fe f85c 	bl	8000f14 <HAL_GetTick>
 8002e5c:	4602      	mov	r2, r0
 8002e5e:	693b      	ldr	r3, [r7, #16]
 8002e60:	1ad3      	subs	r3, r2, r3
 8002e62:	2b64      	cmp	r3, #100	; 0x64
 8002e64:	d901      	bls.n	8002e6a <HAL_RCC_OscConfig+0xf6>
 8002e66:	2303      	movs	r3, #3
 8002e68:	e200      	b.n	800326c <HAL_RCC_OscConfig+0x4f8>
 8002e6a:	4b5d      	ldr	r3, [pc, #372]	; (8002fe0 <HAL_RCC_OscConfig+0x26c>)
 8002e6c:	681b      	ldr	r3, [r3, #0]
 8002e6e:	f403 3300 	and.w	r3, r3, #131072	; 0x20000
 8002e72:	2b00      	cmp	r3, #0
 8002e74:	d0f0      	beq.n	8002e58 <HAL_RCC_OscConfig+0xe4>
 8002e76:	e014      	b.n	8002ea2 <HAL_RCC_OscConfig+0x12e>
 8002e78:	f7fe f84c 	bl	8000f14 <HAL_GetTick>
 8002e7c:	6138      	str	r0, [r7, #16]
 8002e7e:	e008      	b.n	8002e92 <HAL_RCC_OscConfig+0x11e>
 8002e80:	f7fe f848 	bl	8000f14 <HAL_GetTick>
 8002e84:	4602      	mov	r2, r0
 8002e86:	693b      	ldr	r3, [r7, #16]
 8002e88:	1ad3      	subs	r3, r2, r3
 8002e8a:	2b64      	cmp	r3, #100	; 0x64
 8002e8c:	d901      	bls.n	8002e92 <HAL_RCC_OscConfig+0x11e>
 8002e8e:	2303      	movs	r3, #3
 8002e90:	e1ec      	b.n	800326c <HAL_RCC_OscConfig+0x4f8>
 8002e92:	4b53      	ldr	r3, [pc, #332]	; (8002fe0 <HAL_RCC_OscConfig+0x26c>)
 8002e94:	681b      	ldr	r3, [r3, #0]
 8002e96:	f403 3300 	and.w	r3, r3, #131072	; 0x20000
 8002e9a:	2b00      	cmp	r3, #0
 8002e9c:	d1f0      	bne.n	8002e80 <HAL_RCC_OscConfig+0x10c>
 8002e9e:	e000      	b.n	8002ea2 <HAL_RCC_OscConfig+0x12e>
 8002ea0:	bf00      	nop
 8002ea2:	687b      	ldr	r3, [r7, #4]
 8002ea4:	681b      	ldr	r3, [r3, #0]
 8002ea6:	f003 0302 	and.w	r3, r3, #2
 8002eaa:	2b00      	cmp	r3, #0
 8002eac:	d063      	beq.n	8002f76 <HAL_RCC_OscConfig+0x202>
 8002eae:	4b4c      	ldr	r3, [pc, #304]	; (8002fe0 <HAL_RCC_OscConfig+0x26c>)
 8002eb0:	685b      	ldr	r3, [r3, #4]
 8002eb2:	f003 030c 	and.w	r3, r3, #12
 8002eb6:	2b00      	cmp	r3, #0
 8002eb8:	d00b      	beq.n	8002ed2 <HAL_RCC_OscConfig+0x15e>
 8002eba:	4b49      	ldr	r3, [pc, #292]	; (8002fe0 <HAL_RCC_OscConfig+0x26c>)
 8002ebc:	685b      	ldr	r3, [r3, #4]
 8002ebe:	f003 030c 	and.w	r3, r3, #12
 8002ec2:	2b08      	cmp	r3, #8
 8002ec4:	d11c      	bne.n	8002f00 <HAL_RCC_OscConfig+0x18c>
 8002ec6:	4b46      	ldr	r3, [pc, #280]	; (8002fe0 <HAL_RCC_OscConfig+0x26c>)
 8002ec8:	685b      	ldr	r3, [r3, #4]
 8002eca:	f403 3380 	and.w	r3, r3, #65536	; 0x10000
 8002ece:	2b00      	cmp	r3, #0
 8002ed0:	d116      	bne.n	8002f00 <HAL_RCC_OscConfig+0x18c>
 8002ed2:	4b43      	ldr	r3, [pc, #268]	; (8002fe0 <HAL_RCC_OscConfig+0x26c>)
 8002ed4:	681b      	ldr	r3, [r3, #0]
 8002ed6:	f003 0302 	and.w	r3, r3, #2
 8002eda:	2b00      	cmp	r3, #0
 8002edc:	d005      	beq.n	8002eea <HAL_RCC_OscConfig+0x176>
 8002ede:	687b      	ldr	r3, [r7, #4]
 8002ee0:	691b      	ldr	r3, [r3, #16]
 8002ee2:	2b01      	cmp	r3, #1
 8002ee4:	d001      	beq.n	8002eea <HAL_RCC_OscConfig+0x176>
 8002ee6:	2301      	movs	r3, #1
 8002ee8:	e1c0      	b.n	800326c <HAL_RCC_OscConfig+0x4f8>
 8002eea:	4b3d      	ldr	r3, [pc, #244]	; (8002fe0 <HAL_RCC_OscConfig+0x26c>)
 8002eec:	681b      	ldr	r3, [r3, #0]
 8002eee:	f023 02f8 	bic.w	r2, r3, #248	; 0xf8
 8002ef2:	687b      	ldr	r3, [r7, #4]
 8002ef4:	695b      	ldr	r3, [r3, #20]
 8002ef6:	00db      	lsls	r3, r3, #3
 8002ef8:	4939      	ldr	r1, [pc, #228]	; (8002fe0 <HAL_RCC_OscConfig+0x26c>)
 8002efa:	4313      	orrs	r3, r2
 8002efc:	600b      	str	r3, [r1, #0]
 8002efe:	e03a      	b.n	8002f76 <HAL_RCC_OscConfig+0x202>
 8002f00:	687b      	ldr	r3, [r7, #4]
 8002f02:	691b      	ldr	r3, [r3, #16]
 8002f04:	2b00      	cmp	r3, #0
 8002f06:	d020      	beq.n	8002f4a <HAL_RCC_OscConfig+0x1d6>
 8002f08:	4b36      	ldr	r3, [pc, #216]	; (8002fe4 <HAL_RCC_OscConfig+0x270>)
 8002f0a:	2201      	movs	r2, #1
 8002f0c:	601a      	str	r2, [r3, #0]
 8002f0e:	f7fe f801 	bl	8000f14 <HAL_GetTick>
 8002f12:	6138      	str	r0, [r7, #16]
 8002f14:	e008      	b.n	8002f28 <HAL_RCC_OscConfig+0x1b4>
 8002f16:	f7fd fffd 	bl	8000f14 <HAL_GetTick>
 8002f1a:	4602      	mov	r2, r0
 8002f1c:	693b      	ldr	r3, [r7, #16]
 8002f1e:	1ad3      	subs	r3, r2, r3
 8002f20:	2b02      	cmp	r3, #2
 8002f22:	d901      	bls.n	8002f28 <HAL_RCC_OscConfig+0x1b4>
 8002f24:	2303      	movs	r3, #3
 8002f26:	e1a1      	b.n	800326c <HAL_RCC_OscConfig+0x4f8>
 8002f28:	4b2d      	ldr	r3, [pc, #180]	; (8002fe0 <HAL_RCC_OscConfig+0x26c>)
 8002f2a:	681b      	ldr	r3, [r3, #0]
 8002f2c:	f003 0302 	and.w	r3, r3, #2
 8002f30:	2b00      	cmp	r3, #0
 8002f32:	d0f0      	beq.n	8002f16 <HAL_RCC_OscConfig+0x1a2>
 8002f34:	4b2a      	ldr	r3, [pc, #168]	; (8002fe0 <HAL_RCC_OscConfig+0x26c>)
 8002f36:	681b      	ldr	r3, [r3, #0]
 8002f38:	f023 02f8 	bic.w	r2, r3, #248	; 0xf8
 8002f3c:	687b      	ldr	r3, [r7, #4]
 8002f3e:	695b      	ldr	r3, [r3, #20]
 8002f40:	00db      	lsls	r3, r3, #3
 8002f42:	4927      	ldr	r1, [pc, #156]	; (8002fe0 <HAL_RCC_OscConfig+0x26c>)
 8002f44:	4313      	orrs	r3, r2
 8002f46:	600b      	str	r3, [r1, #0]
 8002f48:	e015      	b.n	8002f76 <HAL_RCC_OscConfig+0x202>
 8002f4a:	4b26      	ldr	r3, [pc, #152]	; (8002fe4 <HAL_RCC_OscConfig+0x270>)
 8002f4c:	2200      	movs	r2, #0
 8002f4e:	601a      	str	r2, [r3, #0]
 8002f50:	f7fd ffe0 	bl	8000f14 <HAL_GetTick>
 8002f54:	6138      	str	r0, [r7, #16]
 8002f56:	e008      	b.n	8002f6a <HAL_RCC_OscConfig+0x1f6>
 8002f58:	f7fd ffdc 	bl	8000f14 <HAL_GetTick>
 8002f5c:	4602      	mov	r2, r0
 8002f5e:	693b      	ldr	r3, [r7, #16]
 8002f60:	1ad3      	subs	r3, r2, r3
 8002f62:	2b02      	cmp	r3, #2
 8002f64:	d901      	bls.n	8002f6a <HAL_RCC_OscConfig+0x1f6>
 8002f66:	2303      	movs	r3, #3
 8002f68:	e180      	b.n	800326c <HAL_RCC_OscConfig+0x4f8>
 8002f6a:	4b1d      	ldr	r3, [pc, #116]	; (8002fe0 <HAL_RCC_OscConfig+0x26c>)
 8002f6c:	681b      	ldr	r3, [r3, #0]
 8002f6e:	f003 0302 	and.w	r3, r3, #2
 8002f72:	2b00      	cmp	r3, #0
 8002f74:	d1f0      	bne.n	8002f58 <HAL_RCC_OscConfig+0x1e4>
 8002f76:	687b      	ldr	r3, [r7, #4]
 8002f78:	681b      	ldr	r3, [r3, #0]
 8002f7a:	f003 0308 	and.w	r3, r3, #8
 8002f7e:	2b00      	cmp	r3, #0
 8002f80:	d03a      	beq.n	8002ff8 <HAL_RCC_OscConfig+0x284>
 8002f82:	687b      	ldr	r3, [r7, #4]
 8002f84:	699b      	ldr	r3, [r3, #24]
 8002f86:	2b00      	cmp	r3, #0
 8002f88:	d019      	beq.n	8002fbe <HAL_RCC_OscConfig+0x24a>
 8002f8a:	4b17      	ldr	r3, [pc, #92]	; (8002fe8 <HAL_RCC_OscConfig+0x274>)
 8002f8c:	2201      	movs	r2, #1
 8002f8e:	601a      	str	r2, [r3, #0]
 8002f90:	f7fd ffc0 	bl	8000f14 <HAL_GetTick>
 8002f94:	6138      	str	r0, [r7, #16]
 8002f96:	e008      	b.n	8002faa <HAL_RCC_OscConfig+0x236>
 8002f98:	f7fd ffbc 	bl	8000f14 <HAL_GetTick>
 8002f9c:	4602      	mov	r2, r0
 8002f9e:	693b      	ldr	r3, [r7, #16]
 8002fa0:	1ad3      	subs	r3, r2, r3
 8002fa2:	2b02      	cmp	r3, #2
 8002fa4:	d901      	bls.n	8002faa <HAL_RCC_OscConfig+0x236>
 8002fa6:	2303      	movs	r3, #3
 8002fa8:	e160      	b.n	800326c <HAL_RCC_OscConfig+0x4f8>
 8002faa:	4b0d      	ldr	r3, [pc, #52]	; (8002fe0 <HAL_RCC_OscConfig+0x26c>)
 8002fac:	6a5b      	ldr	r3, [r3, #36]	; 0x24
 8002fae:	f003 0302 	and.w	r3, r3, #2
 8002fb2:	2b00      	cmp	r3, #0
 8002fb4:	d0f0      	beq.n	8002f98 <HAL_RCC_OscConfig+0x224>
 8002fb6:	2001      	movs	r0, #1
 8002fb8:	f000 faba 	bl	8003530 <RCC_Delay>
 8002fbc:	e01c      	b.n	8002ff8 <HAL_RCC_OscConfig+0x284>
 8002fbe:	4b0a      	ldr	r3, [pc, #40]	; (8002fe8 <HAL_RCC_OscConfig+0x274>)
 8002fc0:	2200      	movs	r2, #0
 8002fc2:	601a      	str	r2, [r3, #0]
 8002fc4:	f7fd ffa6 	bl	8000f14 <HAL_GetTick>
 8002fc8:	6138      	str	r0, [r7, #16]
 8002fca:	e00f      	b.n	8002fec <HAL_RCC_OscConfig+0x278>
 8002fcc:	f7fd ffa2 	bl	8000f14 <HAL_GetTick>
 8002fd0:	4602      	mov	r2, r0
 8002fd2:	693b      	ldr	r3, [r7, #16]
 8002fd4:	1ad3      	subs	r3, r2, r3
 8002fd6:	2b02      	cmp	r3, #2
 8002fd8:	d908      	bls.n	8002fec <HAL_RCC_OscConfig+0x278>
 8002fda:	2303      	movs	r3, #3
 8002fdc:	e146      	b.n	800326c <HAL_RCC_OscConfig+0x4f8>
 8002fde:	bf00      	nop
 8002fe0:	40021000 	.word	0x40021000
 8002fe4:	42420000 	.word	0x42420000
 8002fe8:	42420480 	.word	0x42420480
 8002fec:	4b92      	ldr	r3, [pc, #584]	; (8003238 <HAL_RCC_OscConfig+0x4c4>)
 8002fee:	6a5b      	ldr	r3, [r3, #36]	; 0x24
 8002ff0:	f003 0302 	and.w	r3, r3, #2
 8002ff4:	2b00      	cmp	r3, #0
 8002ff6:	d1e9      	bne.n	8002fcc <HAL_RCC_OscConfig+0x258>
 8002ff8:	687b      	ldr	r3, [r7, #4]
 8002ffa:	681b      	ldr	r3, [r3, #0]
 8002ffc:	f003 0304 	and.w	r3, r3, #4
 8003000:	2b00      	cmp	r3, #0
 8003002:	f000 80a6 	beq.w	8003152 <HAL_RCC_OscConfig+0x3de>
 8003006:	2300      	movs	r3, #0
 8003008:	75fb      	strb	r3, [r7, #23]
 800300a:	4b8b      	ldr	r3, [pc, #556]	; (8003238 <HAL_RCC_OscConfig+0x4c4>)
 800300c:	69db      	ldr	r3, [r3, #28]
 800300e:	f003 5380 	and.w	r3, r3, #268435456	; 0x10000000
 8003012:	2b00      	cmp	r3, #0
 8003014:	d10d      	bne.n	8003032 <HAL_RCC_OscConfig+0x2be>
 8003016:	4b88      	ldr	r3, [pc, #544]	; (8003238 <HAL_RCC_OscConfig+0x4c4>)
 8003018:	69db      	ldr	r3, [r3, #28]
 800301a:	4a87      	ldr	r2, [pc, #540]	; (8003238 <HAL_RCC_OscConfig+0x4c4>)
 800301c:	f043 5380 	orr.w	r3, r3, #268435456	; 0x10000000
 8003020:	61d3      	str	r3, [r2, #28]
 8003022:	4b85      	ldr	r3, [pc, #532]	; (8003238 <HAL_RCC_OscConfig+0x4c4>)
 8003024:	69db      	ldr	r3, [r3, #28]
 8003026:	f003 5380 	and.w	r3, r3, #268435456	; 0x10000000
 800302a:	60bb      	str	r3, [r7, #8]
 800302c:	68bb      	ldr	r3, [r7, #8]
 800302e:	2301      	movs	r3, #1
 8003030:	75fb      	strb	r3, [r7, #23]
 8003032:	4b82      	ldr	r3, [pc, #520]	; (800323c <HAL_RCC_OscConfig+0x4c8>)
 8003034:	681b      	ldr	r3, [r3, #0]
 8003036:	f403 7380 	and.w	r3, r3, #256	; 0x100
 800303a:	2b00      	cmp	r3, #0
 800303c:	d118      	bne.n	8003070 <HAL_RCC_OscConfig+0x2fc>
 800303e:	4b7f      	ldr	r3, [pc, #508]	; (800323c <HAL_RCC_OscConfig+0x4c8>)
 8003040:	681b      	ldr	r3, [r3, #0]
 8003042:	4a7e      	ldr	r2, [pc, #504]	; (800323c <HAL_RCC_OscConfig+0x4c8>)
 8003044:	f443 7380 	orr.w	r3, r3, #256	; 0x100
 8003048:	6013      	str	r3, [r2, #0]
 800304a:	f7fd ff63 	bl	8000f14 <HAL_GetTick>
 800304e:	6138      	str	r0, [r7, #16]
 8003050:	e008      	b.n	8003064 <HAL_RCC_OscConfig+0x2f0>
 8003052:	f7fd ff5f 	bl	8000f14 <HAL_GetTick>
 8003056:	4602      	mov	r2, r0
 8003058:	693b      	ldr	r3, [r7, #16]
 800305a:	1ad3      	subs	r3, r2, r3
 800305c:	2b64      	cmp	r3, #100	; 0x64
 800305e:	d901      	bls.n	8003064 <HAL_RCC_OscConfig+0x2f0>
 8003060:	2303      	movs	r3, #3
 8003062:	e103      	b.n	800326c <HAL_RCC_OscConfig+0x4f8>
 8003064:	4b75      	ldr	r3, [pc, #468]	; (800323c <HAL_RCC_OscConfig+0x4c8>)
 8003066:	681b      	ldr	r3, [r3, #0]
 8003068:	f403 7380 	and.w	r3, r3, #256	; 0x100
 800306c:	2b00      	cmp	r3, #0
 800306e:	d0f0      	beq.n	8003052 <HAL_RCC_OscConfig+0x2de>
 8003070:	687b      	ldr	r3, [r7, #4]
 8003072:	68db      	ldr	r3, [r3, #12]
 8003074:	2b01      	cmp	r3, #1
 8003076:	d106      	bne.n	8003086 <HAL_RCC_OscConfig+0x312>
 8003078:	4b6f      	ldr	r3, [pc, #444]	; (8003238 <HAL_RCC_OscConfig+0x4c4>)
 800307a:	6a1b      	ldr	r3, [r3, #32]
 800307c:	4a6e      	ldr	r2, [pc, #440]	; (8003238 <HAL_RCC_OscConfig+0x4c4>)
 800307e:	f043 0301 	orr.w	r3, r3, #1
 8003082:	6213      	str	r3, [r2, #32]
 8003084:	e02d      	b.n	80030e2 <HAL_RCC_OscConfig+0x36e>
 8003086:	687b      	ldr	r3, [r7, #4]
 8003088:	68db      	ldr	r3, [r3, #12]
 800308a:	2b00      	cmp	r3, #0
 800308c:	d10c      	bne.n	80030a8 <HAL_RCC_OscConfig+0x334>
 800308e:	4b6a      	ldr	r3, [pc, #424]	; (8003238 <HAL_RCC_OscConfig+0x4c4>)
 8003090:	6a1b      	ldr	r3, [r3, #32]
 8003092:	4a69      	ldr	r2, [pc, #420]	; (8003238 <HAL_RCC_OscConfig+0x4c4>)
 8003094:	f023 0301 	bic.w	r3, r3, #1
 8003098:	6213      	str	r3, [r2, #32]
 800309a:	4b67      	ldr	r3, [pc, #412]	; (8003238 <HAL_RCC_OscConfig+0x4c4>)
 800309c:	6a1b      	ldr	r3, [r3, #32]
 800309e:	4a66      	ldr	r2, [pc, #408]	; (8003238 <HAL_RCC_OscConfig+0x4c4>)
 80030a0:	f023 0304 	bic.w	r3, r3, #4
 80030a4:	6213      	str	r3, [r2, #32]
 80030a6:	e01c      	b.n	80030e2 <HAL_RCC_OscConfig+0x36e>
 80030a8:	687b      	ldr	r3, [r7, #4]
 80030aa:	68db      	ldr	r3, [r3, #12]
 80030ac:	2b05      	cmp	r3, #5
 80030ae:	d10c      	bne.n	80030ca <HAL_RCC_OscConfig+0x356>
 80030b0:	4b61      	ldr	r3, [pc, #388]	; (8003238 <HAL_RCC_OscConfig+0x4c4>)
 80030b2:	6a1b      	ldr	r3, [r3, #32]
 80030b4:	4a60      	ldr	r2, [pc, #384]	; (8003238 <HAL_RCC_OscConfig+0x4c4>)
 80030b6:	f043 0304 	orr.w	r3, r3, #4
 80030ba:	6213      	str	r3, [r2, #32]
 80030bc:	4b5e      	ldr	r3, [pc, #376]	; (8003238 <HAL_RCC_OscConfig+0x4c4>)
 80030be:	6a1b      	ldr	r3, [r3, #32]
 80030c0:	4a5d      	ldr	r2, [pc, #372]	; (8003238 <HAL_RCC_OscConfig+0x4c4>)
 80030c2:	f043 0301 	orr.w	r3, r3, #1
 80030c6:	6213      	str	r3, [r2, #32]
 80030c8:	e00b      	b.n	80030e2 <HAL_RCC_OscConfig+0x36e>
 80030ca:	4b5b      	ldr	r3, [pc, #364]	; (8003238 <HAL_RCC_OscConfig+0x4c4>)
 80030cc:	6a1b      	ldr	r3, [r3, #32]
 80030ce:	4a5a      	ldr	r2, [pc, #360]	; (8003238 <HAL_RCC_OscConfig+0x4c4>)
 80030d0:	f023 0301 	bic.w	r3, r3, #1
 80030d4:	6213      	str	r3, [r2, #32]
 80030d6:	4b58      	ldr	r3, [pc, #352]	; (8003238 <HAL_RCC_OscConfig+0x4c4>)
 80030d8:	6a1b      	ldr	r3, [r3, #32]
 80030da:	4a57      	ldr	r2, [pc, #348]	; (8003238 <HAL_RCC_OscConfig+0x4c4>)
 80030dc:	f023 0304 	bic.w	r3, r3, #4
 80030e0:	6213      	str	r3, [r2, #32]
 80030e2:	687b      	ldr	r3, [r7, #4]
 80030e4:	68db      	ldr	r3, [r3, #12]
 80030e6:	2b00      	cmp	r3, #0
 80030e8:	d015      	beq.n	8003116 <HAL_RCC_OscConfig+0x3a2>
 80030ea:	f7fd ff13 	bl	8000f14 <HAL_GetTick>
 80030ee:	6138      	str	r0, [r7, #16]
 80030f0:	e00a      	b.n	8003108 <HAL_RCC_OscConfig+0x394>
 80030f2:	f7fd ff0f 	bl	8000f14 <HAL_GetTick>
 80030f6:	4602      	mov	r2, r0
 80030f8:	693b      	ldr	r3, [r7, #16]
 80030fa:	1ad3      	subs	r3, r2, r3
 80030fc:	f241 3288 	movw	r2, #5000	; 0x1388
 8003100:	4293      	cmp	r3, r2
 8003102:	d901      	bls.n	8003108 <HAL_RCC_OscConfig+0x394>
 8003104:	2303      	movs	r3, #3
 8003106:	e0b1      	b.n	800326c <HAL_RCC_OscConfig+0x4f8>
 8003108:	4b4b      	ldr	r3, [pc, #300]	; (8003238 <HAL_RCC_OscConfig+0x4c4>)
 800310a:	6a1b      	ldr	r3, [r3, #32]
 800310c:	f003 0302 	and.w	r3, r3, #2
 8003110:	2b00      	cmp	r3, #0
 8003112:	d0ee      	beq.n	80030f2 <HAL_RCC_OscConfig+0x37e>
 8003114:	e014      	b.n	8003140 <HAL_RCC_OscConfig+0x3cc>
 8003116:	f7fd fefd 	bl	8000f14 <HAL_GetTick>
 800311a:	6138      	str	r0, [r7, #16]
 800311c:	e00a      	b.n	8003134 <HAL_RCC_OscConfig+0x3c0>
 800311e:	f7fd fef9 	bl	8000f14 <HAL_GetTick>
 8003122:	4602      	mov	r2, r0
 8003124:	693b      	ldr	r3, [r7, #16]
 8003126:	1ad3      	subs	r3, r2, r3
 8003128:	f241 3288 	movw	r2, #5000	; 0x1388
 800312c:	4293      	cmp	r3, r2
 800312e:	d901      	bls.n	8003134 <HAL_RCC_OscConfig+0x3c0>
 8003130:	2303      	movs	r3, #3
 8003132:	e09b      	b.n	800326c <HAL_RCC_OscConfig+0x4f8>
 8003134:	4b40      	ldr	r3, [pc, #256]	; (8003238 <HAL_RCC_OscConfig+0x4c4>)
 8003136:	6a1b      	ldr	r3, [r3, #32]
 8003138:	f003 0302 	and.w	r3, r3, #2
 800313c:	2b00      	cmp	r3, #0
 800313e:	d1ee      	bne.n	800311e <HAL_RCC_OscConfig+0x3aa>
 8003140:	7dfb      	ldrb	r3, [r7, #23]
 8003142:	2b01      	cmp	r3, #1
 8003144:	d105      	bne.n	8003152 <HAL_RCC_OscConfig+0x3de>
 8003146:	4b3c      	ldr	r3, [pc, #240]	; (8003238 <HAL_RCC_OscConfig+0x4c4>)
 8003148:	69db      	ldr	r3, [r3, #28]
 800314a:	4a3b      	ldr	r2, [pc, #236]	; (8003238 <HAL_RCC_OscConfig+0x4c4>)
 800314c:	f023 5380 	bic.w	r3, r3, #268435456	; 0x10000000
 8003150:	61d3      	str	r3, [r2, #28]
 8003152:	687b      	ldr	r3, [r7, #4]
 8003154:	69db      	ldr	r3, [r3, #28]
 8003156:	2b00      	cmp	r3, #0
 8003158:	f000 8087 	beq.w	800326a <HAL_RCC_OscConfig+0x4f6>
 800315c:	4b36      	ldr	r3, [pc, #216]	; (8003238 <HAL_RCC_OscConfig+0x4c4>)
 800315e:	685b      	ldr	r3, [r3, #4]
 8003160:	f003 030c 	and.w	r3, r3, #12
 8003164:	2b08      	cmp	r3, #8
 8003166:	d061      	beq.n	800322c <HAL_RCC_OscConfig+0x4b8>
 8003168:	687b      	ldr	r3, [r7, #4]
 800316a:	69db      	ldr	r3, [r3, #28]
 800316c:	2b02      	cmp	r3, #2
 800316e:	d146      	bne.n	80031fe <HAL_RCC_OscConfig+0x48a>
 8003170:	4b33      	ldr	r3, [pc, #204]	; (8003240 <HAL_RCC_OscConfig+0x4cc>)
 8003172:	2200      	movs	r2, #0
 8003174:	601a      	str	r2, [r3, #0]
 8003176:	f7fd fecd 	bl	8000f14 <HAL_GetTick>
 800317a:	6138      	str	r0, [r7, #16]
 800317c:	e008      	b.n	8003190 <HAL_RCC_OscConfig+0x41c>
 800317e:	f7fd fec9 	bl	8000f14 <HAL_GetTick>
 8003182:	4602      	mov	r2, r0
 8003184:	693b      	ldr	r3, [r7, #16]
 8003186:	1ad3      	subs	r3, r2, r3
 8003188:	2b02      	cmp	r3, #2
 800318a:	d901      	bls.n	8003190 <HAL_RCC_OscConfig+0x41c>
 800318c:	2303      	movs	r3, #3
 800318e:	e06d      	b.n	800326c <HAL_RCC_OscConfig+0x4f8>
 8003190:	4b29      	ldr	r3, [pc, #164]	; (8003238 <HAL_RCC_OscConfig+0x4c4>)
 8003192:	681b      	ldr	r3, [r3, #0]
 8003194:	f003 7300 	and.w	r3, r3, #33554432	; 0x2000000
 8003198:	2b00      	cmp	r3, #0
 800319a:	d1f0      	bne.n	800317e <HAL_RCC_OscConfig+0x40a>
 800319c:	687b      	ldr	r3, [r7, #4]
 800319e:	6a1b      	ldr	r3, [r3, #32]
 80031a0:	f5b3 3f80 	cmp.w	r3, #65536	; 0x10000
 80031a4:	d108      	bne.n	80031b8 <HAL_RCC_OscConfig+0x444>
 80031a6:	4b24      	ldr	r3, [pc, #144]	; (8003238 <HAL_RCC_OscConfig+0x4c4>)
 80031a8:	685b      	ldr	r3, [r3, #4]
 80031aa:	f423 3200 	bic.w	r2, r3, #131072	; 0x20000
 80031ae:	687b      	ldr	r3, [r7, #4]
 80031b0:	689b      	ldr	r3, [r3, #8]
 80031b2:	4921      	ldr	r1, [pc, #132]	; (8003238 <HAL_RCC_OscConfig+0x4c4>)
 80031b4:	4313      	orrs	r3, r2
 80031b6:	604b      	str	r3, [r1, #4]
 80031b8:	4b1f      	ldr	r3, [pc, #124]	; (8003238 <HAL_RCC_OscConfig+0x4c4>)
 80031ba:	685b      	ldr	r3, [r3, #4]
 80031bc:	f423 1274 	bic.w	r2, r3, #3997696	; 0x3d0000
 80031c0:	687b      	ldr	r3, [r7, #4]
 80031c2:	6a19      	ldr	r1, [r3, #32]
 80031c4:	687b      	ldr	r3, [r7, #4]
 80031c6:	6a5b      	ldr	r3, [r3, #36]	; 0x24
 80031c8:	430b      	orrs	r3, r1
 80031ca:	491b      	ldr	r1, [pc, #108]	; (8003238 <HAL_RCC_OscConfig+0x4c4>)
 80031cc:	4313      	orrs	r3, r2
 80031ce:	604b      	str	r3, [r1, #4]
 80031d0:	4b1b      	ldr	r3, [pc, #108]	; (8003240 <HAL_RCC_OscConfig+0x4cc>)
 80031d2:	2201      	movs	r2, #1
 80031d4:	601a      	str	r2, [r3, #0]
 80031d6:	f7fd fe9d 	bl	8000f14 <HAL_GetTick>
 80031da:	6138      	str	r0, [r7, #16]
 80031dc:	e008      	b.n	80031f0 <HAL_RCC_OscConfig+0x47c>
 80031de:	f7fd fe99 	bl	8000f14 <HAL_GetTick>
 80031e2:	4602      	mov	r2, r0
 80031e4:	693b      	ldr	r3, [r7, #16]
 80031e6:	1ad3      	subs	r3, r2, r3
 80031e8:	2b02      	cmp	r3, #2
 80031ea:	d901      	bls.n	80031f0 <HAL_RCC_OscConfig+0x47c>
 80031ec:	2303      	movs	r3, #3
 80031ee:	e03d      	b.n	800326c <HAL_RCC_OscConfig+0x4f8>
 80031f0:	4b11      	ldr	r3, [pc, #68]	; (8003238 <HAL_RCC_OscConfig+0x4c4>)
 80031f2:	681b      	ldr	r3, [r3, #0]
 80031f4:	f003 7300 	and.w	r3, r3, #33554432	; 0x2000000
 80031f8:	2b00      	cmp	r3, #0
 80031fa:	d0f0      	beq.n	80031de <HAL_RCC_OscConfig+0x46a>
 80031fc:	e035      	b.n	800326a <HAL_RCC_OscConfig+0x4f6>
 80031fe:	4b10      	ldr	r3, [pc, #64]	; (8003240 <HAL_RCC_OscConfig+0x4cc>)
 8003200:	2200      	movs	r2, #0
 8003202:	601a      	str	r2, [r3, #0]
 8003204:	f7fd fe86 	bl	8000f14 <HAL_GetTick>
 8003208:	6138      	str	r0, [r7, #16]
 800320a:	e008      	b.n	800321e <HAL_RCC_OscConfig+0x4aa>
 800320c:	f7fd fe82 	bl	8000f14 <HAL_GetTick>
 8003210:	4602      	mov	r2, r0
 8003212:	693b      	ldr	r3, [r7, #16]
 8003214:	1ad3      	subs	r3, r2, r3
 8003216:	2b02      	cmp	r3, #2
 8003218:	d901      	bls.n	800321e <HAL_RCC_OscConfig+0x4aa>
 800321a:	2303      	movs	r3, #3
 800321c:	e026      	b.n	800326c <HAL_RCC_OscConfig+0x4f8>
 800321e:	4b06      	ldr	r3, [pc, #24]	; (8003238 <HAL_RCC_OscConfig+0x4c4>)
 8003220:	681b      	ldr	r3, [r3, #0]
 8003222:	f003 7300 	and.w	r3, r3, #33554432	; 0x2000000
 8003226:	2b00      	cmp	r3, #0
 8003228:	d1f0      	bne.n	800320c <HAL_RCC_OscConfig+0x498>
 800322a:	e01e      	b.n	800326a <HAL_RCC_OscConfig+0x4f6>
 800322c:	687b      	ldr	r3, [r7, #4]
 800322e:	69db      	ldr	r3, [r3, #28]
 8003230:	2b01      	cmp	r3, #1
 8003232:	d107      	bne.n	8003244 <HAL_RCC_OscConfig+0x4d0>
 8003234:	2301      	movs	r3, #1
 8003236:	e019      	b.n	800326c <HAL_RCC_OscConfig+0x4f8>
 8003238:	40021000 	.word	0x40021000
 800323c:	40007000 	.word	0x40007000
 8003240:	42420060 	.word	0x42420060
 8003244:	4b0b      	ldr	r3, [pc, #44]	; (8003274 <HAL_RCC_OscConfig+0x500>)
 8003246:	685b      	ldr	r3, [r3, #4]
 8003248:	60fb      	str	r3, [r7, #12]
 800324a:	68fb      	ldr	r3, [r7, #12]
 800324c:	f403 3280 	and.w	r2, r3, #65536	; 0x10000
 8003250:	687b      	ldr	r3, [r7, #4]
 8003252:	6a1b      	ldr	r3, [r3, #32]
 8003254:	429a      	cmp	r2, r3
 8003256:	d106      	bne.n	8003266 <HAL_RCC_OscConfig+0x4f2>
 8003258:	68fb      	ldr	r3, [r7, #12]
 800325a:	f403 1270 	and.w	r2, r3, #3932160	; 0x3c0000
 800325e:	687b      	ldr	r3, [r7, #4]
 8003260:	6a5b      	ldr	r3, [r3, #36]	; 0x24
 8003262:	429a      	cmp	r2, r3
 8003264:	d001      	beq.n	800326a <HAL_RCC_OscConfig+0x4f6>
 8003266:	2301      	movs	r3, #1
 8003268:	e000      	b.n	800326c <HAL_RCC_OscConfig+0x4f8>
 800326a:	2300      	movs	r3, #0
 800326c:	4618      	mov	r0, r3
 800326e:	3718      	adds	r7, #24
 8003270:	46bd      	mov	sp, r7
 8003272:	bd80      	pop	{r7, pc}
 8003274:	40021000 	.word	0x40021000

08003278 <HAL_RCC_ClockConfig>:
 8003278:	b580      	push	{r7, lr}
 800327a:	b084      	sub	sp, #16
 800327c:	af00      	add	r7, sp, #0
 800327e:	6078      	str	r0, [r7, #4]
 8003280:	6039      	str	r1, [r7, #0]
 8003282:	687b      	ldr	r3, [r7, #4]
 8003284:	2b00      	cmp	r3, #0
 8003286:	d101      	bne.n	800328c <HAL_RCC_ClockConfig+0x14>
 8003288:	2301      	movs	r3, #1
 800328a:	e0d0      	b.n	800342e <HAL_RCC_ClockConfig+0x1b6>
 800328c:	4b6a      	ldr	r3, [pc, #424]	; (8003438 <HAL_RCC_ClockConfig+0x1c0>)
 800328e:	681b      	ldr	r3, [r3, #0]
 8003290:	f003 0307 	and.w	r3, r3, #7
 8003294:	683a      	ldr	r2, [r7, #0]
 8003296:	429a      	cmp	r2, r3
 8003298:	d910      	bls.n	80032bc <HAL_RCC_ClockConfig+0x44>
 800329a:	4b67      	ldr	r3, [pc, #412]	; (8003438 <HAL_RCC_ClockConfig+0x1c0>)
 800329c:	681b      	ldr	r3, [r3, #0]
 800329e:	f023 0207 	bic.w	r2, r3, #7
 80032a2:	4965      	ldr	r1, [pc, #404]	; (8003438 <HAL_RCC_ClockConfig+0x1c0>)
 80032a4:	683b      	ldr	r3, [r7, #0]
 80032a6:	4313      	orrs	r3, r2
 80032a8:	600b      	str	r3, [r1, #0]
 80032aa:	4b63      	ldr	r3, [pc, #396]	; (8003438 <HAL_RCC_ClockConfig+0x1c0>)
 80032ac:	681b      	ldr	r3, [r3, #0]
 80032ae:	f003 0307 	and.w	r3, r3, #7
 80032b2:	683a      	ldr	r2, [r7, #0]
 80032b4:	429a      	cmp	r2, r3
 80032b6:	d001      	beq.n	80032bc <HAL_RCC_ClockConfig+0x44>
 80032b8:	2301      	movs	r3, #1
 80032ba:	e0b8      	b.n	800342e <HAL_RCC_ClockConfig+0x1b6>
 80032bc:	687b      	ldr	r3, [r7, #4]
 80032be:	681b      	ldr	r3, [r3, #0]
 80032c0:	f003 0302 	and.w	r3, r3, #2
 80032c4:	2b00      	cmp	r3, #0
 80032c6:	d020      	beq.n	800330a <HAL_RCC_ClockConfig+0x92>
 80032c8:	687b      	ldr	r3, [r7, #4]
 80032ca:	681b      	ldr	r3, [r3, #0]
 80032cc:	f003 0304 	and.w	r3, r3, #4
 80032d0:	2b00      	cmp	r3, #0
 80032d2:	d005      	beq.n	80032e0 <HAL_RCC_ClockConfig+0x68>
 80032d4:	4b59      	ldr	r3, [pc, #356]	; (800343c <HAL_RCC_ClockConfig+0x1c4>)
 80032d6:	685b      	ldr	r3, [r3, #4]
 80032d8:	4a58      	ldr	r2, [pc, #352]	; (800343c <HAL_RCC_ClockConfig+0x1c4>)
 80032da:	f443 63e0 	orr.w	r3, r3, #1792	; 0x700
 80032de:	6053      	str	r3, [r2, #4]
 80032e0:	687b      	ldr	r3, [r7, #4]
 80032e2:	681b      	ldr	r3, [r3, #0]
 80032e4:	f003 0308 	and.w	r3, r3, #8
 80032e8:	2b00      	cmp	r3, #0
 80032ea:	d005      	beq.n	80032f8 <HAL_RCC_ClockConfig+0x80>
 80032ec:	4b53      	ldr	r3, [pc, #332]	; (800343c <HAL_RCC_ClockConfig+0x1c4>)
 80032ee:	685b      	ldr	r3, [r3, #4]
 80032f0:	4a52      	ldr	r2, [pc, #328]	; (800343c <HAL_RCC_ClockConfig+0x1c4>)
 80032f2:	f443 5360 	orr.w	r3, r3, #14336	; 0x3800
 80032f6:	6053      	str	r3, [r2, #4]
 80032f8:	4b50      	ldr	r3, [pc, #320]	; (800343c <HAL_RCC_ClockConfig+0x1c4>)
 80032fa:	685b      	ldr	r3, [r3, #4]
 80032fc:	f023 02f0 	bic.w	r2, r3, #240	; 0xf0
 8003300:	687b      	ldr	r3, [r7, #4]
 8003302:	689b      	ldr	r3, [r3, #8]
 8003304:	494d      	ldr	r1, [pc, #308]	; (800343c <HAL_RCC_ClockConfig+0x1c4>)
 8003306:	4313      	orrs	r3, r2
 8003308:	604b      	str	r3, [r1, #4]
 800330a:	687b      	ldr	r3, [r7, #4]
 800330c:	681b      	ldr	r3, [r3, #0]
 800330e:	f003 0301 	and.w	r3, r3, #1
 8003312:	2b00      	cmp	r3, #0
 8003314:	d040      	beq.n	8003398 <HAL_RCC_ClockConfig+0x120>
 8003316:	687b      	ldr	r3, [r7, #4]
 8003318:	685b      	ldr	r3, [r3, #4]
 800331a:	2b01      	cmp	r3, #1
 800331c:	d107      	bne.n	800332e <HAL_RCC_ClockConfig+0xb6>
 800331e:	4b47      	ldr	r3, [pc, #284]	; (800343c <HAL_RCC_ClockConfig+0x1c4>)
 8003320:	681b      	ldr	r3, [r3, #0]
 8003322:	f403 3300 	and.w	r3, r3, #131072	; 0x20000
 8003326:	2b00      	cmp	r3, #0
 8003328:	d115      	bne.n	8003356 <HAL_RCC_ClockConfig+0xde>
 800332a:	2301      	movs	r3, #1
 800332c:	e07f      	b.n	800342e <HAL_RCC_ClockConfig+0x1b6>
 800332e:	687b      	ldr	r3, [r7, #4]
 8003330:	685b      	ldr	r3, [r3, #4]
 8003332:	2b02      	cmp	r3, #2
 8003334:	d107      	bne.n	8003346 <HAL_RCC_ClockConfig+0xce>
 8003336:	4b41      	ldr	r3, [pc, #260]	; (800343c <HAL_RCC_ClockConfig+0x1c4>)
 8003338:	681b      	ldr	r3, [r3, #0]
 800333a:	f003 7300 	and.w	r3, r3, #33554432	; 0x2000000
 800333e:	2b00      	cmp	r3, #0
 8003340:	d109      	bne.n	8003356 <HAL_RCC_ClockConfig+0xde>
 8003342:	2301      	movs	r3, #1
 8003344:	e073      	b.n	800342e <HAL_RCC_ClockConfig+0x1b6>
 8003346:	4b3d      	ldr	r3, [pc, #244]	; (800343c <HAL_RCC_ClockConfig+0x1c4>)
 8003348:	681b      	ldr	r3, [r3, #0]
 800334a:	f003 0302 	and.w	r3, r3, #2
 800334e:	2b00      	cmp	r3, #0
 8003350:	d101      	bne.n	8003356 <HAL_RCC_ClockConfig+0xde>
 8003352:	2301      	movs	r3, #1
 8003354:	e06b      	b.n	800342e <HAL_RCC_ClockConfig+0x1b6>
 8003356:	4b39      	ldr	r3, [pc, #228]	; (800343c <HAL_RCC_ClockConfig+0x1c4>)
 8003358:	685b      	ldr	r3, [r3, #4]
 800335a:	f023 0203 	bic.w	r2, r3, #3
 800335e:	687b      	ldr	r3, [r7, #4]
 8003360:	685b      	ldr	r3, [r3, #4]
 8003362:	4936      	ldr	r1, [pc, #216]	; (800343c <HAL_RCC_ClockConfig+0x1c4>)
 8003364:	4313      	orrs	r3, r2
 8003366:	604b      	str	r3, [r1, #4]
 8003368:	f7fd fdd4 	bl	8000f14 <HAL_GetTick>
 800336c:	60f8      	str	r0, [r7, #12]
 800336e:	e00a      	b.n	8003386 <HAL_RCC_ClockConfig+0x10e>
 8003370:	f7fd fdd0 	bl	8000f14 <HAL_GetTick>
 8003374:	4602      	mov	r2, r0
 8003376:	68fb      	ldr	r3, [r7, #12]
 8003378:	1ad3      	subs	r3, r2, r3
 800337a:	f241 3288 	movw	r2, #5000	; 0x1388
 800337e:	4293      	cmp	r3, r2
 8003380:	d901      	bls.n	8003386 <HAL_RCC_ClockConfig+0x10e>
 8003382:	2303      	movs	r3, #3
 8003384:	e053      	b.n	800342e <HAL_RCC_ClockConfig+0x1b6>
 8003386:	4b2d      	ldr	r3, [pc, #180]	; (800343c <HAL_RCC_ClockConfig+0x1c4>)
 8003388:	685b      	ldr	r3, [r3, #4]
 800338a:	f003 020c 	and.w	r2, r3, #12
 800338e:	687b      	ldr	r3, [r7, #4]
 8003390:	685b      	ldr	r3, [r3, #4]
 8003392:	009b      	lsls	r3, r3, #2
 8003394:	429a      	cmp	r2, r3
 8003396:	d1eb      	bne.n	8003370 <HAL_RCC_ClockConfig+0xf8>
 8003398:	4b27      	ldr	r3, [pc, #156]	; (8003438 <HAL_RCC_ClockConfig+0x1c0>)
 800339a:	681b      	ldr	r3, [r3, #0]
 800339c:	f003 0307 	and.w	r3, r3, #7
 80033a0:	683a      	ldr	r2, [r7, #0]
 80033a2:	429a      	cmp	r2, r3
 80033a4:	d210      	bcs.n	80033c8 <HAL_RCC_ClockConfig+0x150>
 80033a6:	4b24      	ldr	r3, [pc, #144]	; (8003438 <HAL_RCC_ClockConfig+0x1c0>)
 80033a8:	681b      	ldr	r3, [r3, #0]
 80033aa:	f023 0207 	bic.w	r2, r3, #7
 80033ae:	4922      	ldr	r1, [pc, #136]	; (8003438 <HAL_RCC_ClockConfig+0x1c0>)
 80033b0:	683b      	ldr	r3, [r7, #0]
 80033b2:	4313      	orrs	r3, r2
 80033b4:	600b      	str	r3, [r1, #0]
 80033b6:	4b20      	ldr	r3, [pc, #128]	; (8003438 <HAL_RCC_ClockConfig+0x1c0>)
 80033b8:	681b      	ldr	r3, [r3, #0]
 80033ba:	f003 0307 	and.w	r3, r3, #7
 80033be:	683a      	ldr	r2, [r7, #0]
 80033c0:	429a      	cmp	r2, r3
 80033c2:	d001      	beq.n	80033c8 <HAL_RCC_ClockConfig+0x150>
 80033c4:	2301      	movs	r3, #1
 80033c6:	e032      	b.n	800342e <HAL_RCC_ClockConfig+0x1b6>
 80033c8:	687b      	ldr	r3, [r7, #4]
 80033ca:	681b      	ldr	r3, [r3, #0]
 80033cc:	f003 0304 	and.w	r3, r3, #4
 80033d0:	2b00      	cmp	r3, #0
 80033d2:	d008      	beq.n	80033e6 <HAL_RCC_ClockConfig+0x16e>
 80033d4:	4b19      	ldr	r3, [pc, #100]	; (800343c <HAL_RCC_ClockConfig+0x1c4>)
 80033d6:	685b      	ldr	r3, [r3, #4]
 80033d8:	f423 62e0 	bic.w	r2, r3, #1792	; 0x700
 80033dc:	687b      	ldr	r3, [r7, #4]
 80033de:	68db      	ldr	r3, [r3, #12]
 80033e0:	4916      	ldr	r1, [pc, #88]	; (800343c <HAL_RCC_ClockConfig+0x1c4>)
 80033e2:	4313      	orrs	r3, r2
 80033e4:	604b      	str	r3, [r1, #4]
 80033e6:	687b      	ldr	r3, [r7, #4]
 80033e8:	681b      	ldr	r3, [r3, #0]
 80033ea:	f003 0308 	and.w	r3, r3, #8
 80033ee:	2b00      	cmp	r3, #0
 80033f0:	d009      	beq.n	8003406 <HAL_RCC_ClockConfig+0x18e>
 80033f2:	4b12      	ldr	r3, [pc, #72]	; (800343c <HAL_RCC_ClockConfig+0x1c4>)
 80033f4:	685b      	ldr	r3, [r3, #4]
 80033f6:	f423 5260 	bic.w	r2, r3, #14336	; 0x3800
 80033fa:	687b      	ldr	r3, [r7, #4]
 80033fc:	691b      	ldr	r3, [r3, #16]
 80033fe:	00db      	lsls	r3, r3, #3
 8003400:	490e      	ldr	r1, [pc, #56]	; (800343c <HAL_RCC_ClockConfig+0x1c4>)
 8003402:	4313      	orrs	r3, r2
 8003404:	604b      	str	r3, [r1, #4]
 8003406:	f000 f821 	bl	800344c <HAL_RCC_GetSysClockFreq>
 800340a:	4602      	mov	r2, r0
 800340c:	4b0b      	ldr	r3, [pc, #44]	; (800343c <HAL_RCC_ClockConfig+0x1c4>)
 800340e:	685b      	ldr	r3, [r3, #4]
 8003410:	091b      	lsrs	r3, r3, #4
 8003412:	f003 030f 	and.w	r3, r3, #15
 8003416:	490a      	ldr	r1, [pc, #40]	; (8003440 <HAL_RCC_ClockConfig+0x1c8>)
 8003418:	5ccb      	ldrb	r3, [r1, r3]
 800341a:	fa22 f303 	lsr.w	r3, r2, r3
 800341e:	4a09      	ldr	r2, [pc, #36]	; (8003444 <HAL_RCC_ClockConfig+0x1cc>)
 8003420:	6013      	str	r3, [r2, #0]
 8003422:	4b09      	ldr	r3, [pc, #36]	; (8003448 <HAL_RCC_ClockConfig+0x1d0>)
 8003424:	681b      	ldr	r3, [r3, #0]
 8003426:	4618      	mov	r0, r3
 8003428:	f7fd fd32 	bl	8000e90 <HAL_InitTick>
 800342c:	2300      	movs	r3, #0
 800342e:	4618      	mov	r0, r3
 8003430:	3710      	adds	r7, #16
 8003432:	46bd      	mov	sp, r7
 8003434:	bd80      	pop	{r7, pc}
 8003436:	bf00      	nop
 8003438:	40022000 	.word	0x40022000
 800343c:	40021000 	.word	0x40021000
 8003440:	08005d94 	.word	0x08005d94
 8003444:	20000008 	.word	0x20000008
 8003448:	2000000c 	.word	0x2000000c

0800344c <HAL_RCC_GetSysClockFreq>:
 800344c:	b480      	push	{r7}
 800344e:	b087      	sub	sp, #28
 8003450:	af00      	add	r7, sp, #0
 8003452:	2300      	movs	r3, #0
 8003454:	60fb      	str	r3, [r7, #12]
 8003456:	2300      	movs	r3, #0
 8003458:	60bb      	str	r3, [r7, #8]
 800345a:	2300      	movs	r3, #0
 800345c:	617b      	str	r3, [r7, #20]
 800345e:	2300      	movs	r3, #0
 8003460:	607b      	str	r3, [r7, #4]
 8003462:	2300      	movs	r3, #0
 8003464:	613b      	str	r3, [r7, #16]
 8003466:	4b1e      	ldr	r3, [pc, #120]	; (80034e0 <HAL_RCC_GetSysClockFreq+0x94>)
 8003468:	685b      	ldr	r3, [r3, #4]
 800346a:	60fb      	str	r3, [r7, #12]
 800346c:	68fb      	ldr	r3, [r7, #12]
 800346e:	f003 030c 	and.w	r3, r3, #12
 8003472:	2b04      	cmp	r3, #4
 8003474:	d002      	beq.n	800347c <HAL_RCC_GetSysClockFreq+0x30>
 8003476:	2b08      	cmp	r3, #8
 8003478:	d003      	beq.n	8003482 <HAL_RCC_GetSysClockFreq+0x36>
 800347a:	e027      	b.n	80034cc <HAL_RCC_GetSysClockFreq+0x80>
 800347c:	4b19      	ldr	r3, [pc, #100]	; (80034e4 <HAL_RCC_GetSysClockFreq+0x98>)
 800347e:	613b      	str	r3, [r7, #16]
 8003480:	e027      	b.n	80034d2 <HAL_RCC_GetSysClockFreq+0x86>
 8003482:	68fb      	ldr	r3, [r7, #12]
 8003484:	0c9b      	lsrs	r3, r3, #18
 8003486:	f003 030f 	and.w	r3, r3, #15
 800348a:	4a17      	ldr	r2, [pc, #92]	; (80034e8 <HAL_RCC_GetSysClockFreq+0x9c>)
 800348c:	5cd3      	ldrb	r3, [r2, r3]
 800348e:	607b      	str	r3, [r7, #4]
 8003490:	68fb      	ldr	r3, [r7, #12]
 8003492:	f403 3380 	and.w	r3, r3, #65536	; 0x10000
 8003496:	2b00      	cmp	r3, #0
 8003498:	d010      	beq.n	80034bc <HAL_RCC_GetSysClockFreq+0x70>
 800349a:	4b11      	ldr	r3, [pc, #68]	; (80034e0 <HAL_RCC_GetSysClockFreq+0x94>)
 800349c:	685b      	ldr	r3, [r3, #4]
 800349e:	0c5b      	lsrs	r3, r3, #17
 80034a0:	f003 0301 	and.w	r3, r3, #1
 80034a4:	4a11      	ldr	r2, [pc, #68]	; (80034ec <HAL_RCC_GetSysClockFreq+0xa0>)
 80034a6:	5cd3      	ldrb	r3, [r2, r3]
 80034a8:	60bb      	str	r3, [r7, #8]
 80034aa:	687b      	ldr	r3, [r7, #4]
 80034ac:	4a0d      	ldr	r2, [pc, #52]	; (80034e4 <HAL_RCC_GetSysClockFreq+0x98>)
 80034ae:	fb03 f202 	mul.w	r2, r3, r2
 80034b2:	68bb      	ldr	r3, [r7, #8]
 80034b4:	fbb2 f3f3 	udiv	r3, r2, r3
 80034b8:	617b      	str	r3, [r7, #20]
 80034ba:	e004      	b.n	80034c6 <HAL_RCC_GetSysClockFreq+0x7a>
 80034bc:	687b      	ldr	r3, [r7, #4]
 80034be:	4a0c      	ldr	r2, [pc, #48]	; (80034f0 <HAL_RCC_GetSysClockFreq+0xa4>)
 80034c0:	fb02 f303 	mul.w	r3, r2, r3
 80034c4:	617b      	str	r3, [r7, #20]
 80034c6:	697b      	ldr	r3, [r7, #20]
 80034c8:	613b      	str	r3, [r7, #16]
 80034ca:	e002      	b.n	80034d2 <HAL_RCC_GetSysClockFreq+0x86>
 80034cc:	4b05      	ldr	r3, [pc, #20]	; (80034e4 <HAL_RCC_GetSysClockFreq+0x98>)
 80034ce:	613b      	str	r3, [r7, #16]
 80034d0:	bf00      	nop
 80034d2:	693b      	ldr	r3, [r7, #16]
 80034d4:	4618      	mov	r0, r3
 80034d6:	371c      	adds	r7, #28
 80034d8:	46bd      	mov	sp, r7
 80034da:	bc80      	pop	{r7}
 80034dc:	4770      	bx	lr
 80034de:	bf00      	nop
 80034e0:	40021000 	.word	0x40021000
 80034e4:	007a1200 	.word	0x007a1200
 80034e8:	08005dac 	.word	0x08005dac
 80034ec:	08005dbc 	.word	0x08005dbc
 80034f0:	003d0900 	.word	0x003d0900

080034f4 <HAL_RCC_GetHCLKFreq>:
 80034f4:	b480      	push	{r7}
 80034f6:	af00      	add	r7, sp, #0
 80034f8:	4b02      	ldr	r3, [pc, #8]	; (8003504 <HAL_RCC_GetHCLKFreq+0x10>)
 80034fa:	681b      	ldr	r3, [r3, #0]
 80034fc:	4618      	mov	r0, r3
 80034fe:	46bd      	mov	sp, r7
 8003500:	bc80      	pop	{r7}
 8003502:	4770      	bx	lr
 8003504:	20000008 	.word	0x20000008

08003508 <HAL_RCC_GetPCLK1Freq>:
 8003508:	b580      	push	{r7, lr}
 800350a:	af00      	add	r7, sp, #0
 800350c:	f7ff fff2 	bl	80034f4 <HAL_RCC_GetHCLKFreq>
 8003510:	4602      	mov	r2, r0
 8003512:	4b05      	ldr	r3, [pc, #20]	; (8003528 <HAL_RCC_GetPCLK1Freq+0x20>)
 8003514:	685b      	ldr	r3, [r3, #4]
 8003516:	0a1b      	lsrs	r3, r3, #8
 8003518:	f003 0307 	and.w	r3, r3, #7
 800351c:	4903      	ldr	r1, [pc, #12]	; (800352c <HAL_RCC_GetPCLK1Freq+0x24>)
 800351e:	5ccb      	ldrb	r3, [r1, r3]
 8003520:	fa22 f303 	lsr.w	r3, r2, r3
 8003524:	4618      	mov	r0, r3
 8003526:	bd80      	pop	{r7, pc}
 8003528:	40021000 	.word	0x40021000
 800352c:	08005da4 	.word	0x08005da4

08003530 <RCC_Delay>:
 8003530:	b480      	push	{r7}
 8003532:	b085      	sub	sp, #20
 8003534:	af00      	add	r7, sp, #0
 8003536:	6078      	str	r0, [r7, #4]
 8003538:	4b0a      	ldr	r3, [pc, #40]	; (8003564 <RCC_Delay+0x34>)
 800353a:	681b      	ldr	r3, [r3, #0]
 800353c:	4a0a      	ldr	r2, [pc, #40]	; (8003568 <RCC_Delay+0x38>)
 800353e:	fba2 2303 	umull	r2, r3, r2, r3
 8003542:	0a5b      	lsrs	r3, r3, #9
 8003544:	687a      	ldr	r2, [r7, #4]
 8003546:	fb02 f303 	mul.w	r3, r2, r3
 800354a:	60fb      	str	r3, [r7, #12]
 800354c:	bf00      	nop
 800354e:	68fb      	ldr	r3, [r7, #12]
 8003550:	1e5a      	subs	r2, r3, #1
 8003552:	60fa      	str	r2, [r7, #12]
 8003554:	2b00      	cmp	r3, #0
 8003556:	d1f9      	bne.n	800354c <RCC_Delay+0x1c>
 8003558:	bf00      	nop
 800355a:	bf00      	nop
 800355c:	3714      	adds	r7, #20
 800355e:	46bd      	mov	sp, r7
 8003560:	bc80      	pop	{r7}
 8003562:	4770      	bx	lr
 8003564:	20000008 	.word	0x20000008
 8003568:	10624dd3 	.word	0x10624dd3

0800356c <__errno>:
 800356c:	4b01      	ldr	r3, [pc, #4]	; (8003574 <__errno+0x8>)
 800356e:	6818      	ldr	r0, [r3, #0]
 8003570:	4770      	bx	lr
 8003572:	bf00      	nop
 8003574:	20000014 	.word	0x20000014

08003578 <__libc_init_array>:
 8003578:	b570      	push	{r4, r5, r6, lr}
 800357a:	2500      	movs	r5, #0
 800357c:	4e0c      	ldr	r6, [pc, #48]	; (80035b0 <__libc_init_array+0x38>)
 800357e:	4c0d      	ldr	r4, [pc, #52]	; (80035b4 <__libc_init_array+0x3c>)
 8003580:	1ba4      	subs	r4, r4, r6
 8003582:	10a4      	asrs	r4, r4, #2
 8003584:	42a5      	cmp	r5, r4
 8003586:	d109      	bne.n	800359c <__libc_init_array+0x24>
 8003588:	f000 fc34 	bl	8003df4 <_init>
 800358c:	2500      	movs	r5, #0
 800358e:	4e0a      	ldr	r6, [pc, #40]	; (80035b8 <__libc_init_array+0x40>)
 8003590:	4c0a      	ldr	r4, [pc, #40]	; (80035bc <__libc_init_array+0x44>)
 8003592:	1ba4      	subs	r4, r4, r6
 8003594:	10a4      	asrs	r4, r4, #2
 8003596:	42a5      	cmp	r5, r4
 8003598:	d105      	bne.n	80035a6 <__libc_init_array+0x2e>
 800359a:	bd70      	pop	{r4, r5, r6, pc}
 800359c:	f856 3025 	ldr.w	r3, [r6, r5, lsl #2]
 80035a0:	4798      	blx	r3
 80035a2:	3501      	adds	r5, #1
 80035a4:	e7ee      	b.n	8003584 <__libc_init_array+0xc>
 80035a6:	f856 3025 	ldr.w	r3, [r6, r5, lsl #2]
 80035aa:	4798      	blx	r3
 80035ac:	3501      	adds	r5, #1
 80035ae:	e7f2      	b.n	8003596 <__libc_init_array+0x1e>
 80035b0:	08005df4 	.word	0x08005df4
 80035b4:	08005df4 	.word	0x08005df4
 80035b8:	08005df4 	.word	0x08005df4
 80035bc:	08005df8 	.word	0x08005df8

080035c0 <memset>:
 80035c0:	4603      	mov	r3, r0
 80035c2:	4402      	add	r2, r0
 80035c4:	4293      	cmp	r3, r2
 80035c6:	d100      	bne.n	80035ca <memset+0xa>
 80035c8:	4770      	bx	lr
 80035ca:	f803 1b01 	strb.w	r1, [r3], #1
 80035ce:	e7f9      	b.n	80035c4 <memset+0x4>

080035d0 <_vsiprintf_r>:
 80035d0:	b500      	push	{lr}
 80035d2:	b09b      	sub	sp, #108	; 0x6c
 80035d4:	9100      	str	r1, [sp, #0]
 80035d6:	9104      	str	r1, [sp, #16]
 80035d8:	f06f 4100 	mvn.w	r1, #2147483648	; 0x80000000
 80035dc:	9105      	str	r1, [sp, #20]
 80035de:	9102      	str	r1, [sp, #8]
 80035e0:	4905      	ldr	r1, [pc, #20]	; (80035f8 <_vsiprintf_r+0x28>)
 80035e2:	9103      	str	r1, [sp, #12]
 80035e4:	4669      	mov	r1, sp
 80035e6:	f000 f86d 	bl	80036c4 <_svfiprintf_r>
 80035ea:	2200      	movs	r2, #0
 80035ec:	9b00      	ldr	r3, [sp, #0]
 80035ee:	701a      	strb	r2, [r3, #0]
 80035f0:	b01b      	add	sp, #108	; 0x6c
 80035f2:	f85d fb04 	ldr.w	pc, [sp], #4
 80035f6:	bf00      	nop
 80035f8:	ffff0208 	.word	0xffff0208

080035fc <vsiprintf>:
 80035fc:	4613      	mov	r3, r2
 80035fe:	460a      	mov	r2, r1
 8003600:	4601      	mov	r1, r0
 8003602:	4802      	ldr	r0, [pc, #8]	; (800360c <vsiprintf+0x10>)
 8003604:	6800      	ldr	r0, [r0, #0]
 8003606:	f7ff bfe3 	b.w	80035d0 <_vsiprintf_r>
 800360a:	bf00      	nop
 800360c:	20000014 	.word	0x20000014

08003610 <__ssputs_r>:
 8003610:	e92d 47f0 	stmdb	sp!, {r4, r5, r6, r7, r8, r9, sl, lr}
 8003614:	688e      	ldr	r6, [r1, #8]
 8003616:	4682      	mov	sl, r0
 8003618:	429e      	cmp	r6, r3
 800361a:	460c      	mov	r4, r1
 800361c:	4690      	mov	r8, r2
 800361e:	4699      	mov	r9, r3
 8003620:	d837      	bhi.n	8003692 <__ssputs_r+0x82>
 8003622:	898a      	ldrh	r2, [r1, #12]
 8003624:	f412 6f90 	tst.w	r2, #1152	; 0x480
 8003628:	d031      	beq.n	800368e <__ssputs_r+0x7e>
 800362a:	2302      	movs	r3, #2
 800362c:	6825      	ldr	r5, [r4, #0]
 800362e:	6909      	ldr	r1, [r1, #16]
 8003630:	1a6f      	subs	r7, r5, r1
 8003632:	6965      	ldr	r5, [r4, #20]
 8003634:	eb05 0545 	add.w	r5, r5, r5, lsl #1
 8003638:	fb95 f5f3 	sdiv	r5, r5, r3
 800363c:	f109 0301 	add.w	r3, r9, #1
 8003640:	443b      	add	r3, r7
 8003642:	429d      	cmp	r5, r3
 8003644:	bf38      	it	cc
 8003646:	461d      	movcc	r5, r3
 8003648:	0553      	lsls	r3, r2, #21
 800364a:	d530      	bpl.n	80036ae <__ssputs_r+0x9e>
 800364c:	4629      	mov	r1, r5
 800364e:	f000 fb37 	bl	8003cc0 <_malloc_r>
 8003652:	4606      	mov	r6, r0
 8003654:	b950      	cbnz	r0, 800366c <__ssputs_r+0x5c>
 8003656:	230c      	movs	r3, #12
 8003658:	f04f 30ff 	mov.w	r0, #4294967295	; 0xffffffff
 800365c:	f8ca 3000 	str.w	r3, [sl]
 8003660:	89a3      	ldrh	r3, [r4, #12]
 8003662:	f043 0340 	orr.w	r3, r3, #64	; 0x40
 8003666:	81a3      	strh	r3, [r4, #12]
 8003668:	e8bd 87f0 	ldmia.w	sp!, {r4, r5, r6, r7, r8, r9, sl, pc}
 800366c:	463a      	mov	r2, r7
 800366e:	6921      	ldr	r1, [r4, #16]
 8003670:	f000 fab6 	bl	8003be0 <memcpy>
 8003674:	89a3      	ldrh	r3, [r4, #12]
 8003676:	f423 6390 	bic.w	r3, r3, #1152	; 0x480
 800367a:	f043 0380 	orr.w	r3, r3, #128	; 0x80
 800367e:	81a3      	strh	r3, [r4, #12]
 8003680:	6126      	str	r6, [r4, #16]
 8003682:	443e      	add	r6, r7
 8003684:	6026      	str	r6, [r4, #0]
 8003686:	464e      	mov	r6, r9
 8003688:	6165      	str	r5, [r4, #20]
 800368a:	1bed      	subs	r5, r5, r7
 800368c:	60a5      	str	r5, [r4, #8]
 800368e:	454e      	cmp	r6, r9
 8003690:	d900      	bls.n	8003694 <__ssputs_r+0x84>
 8003692:	464e      	mov	r6, r9
 8003694:	4632      	mov	r2, r6
 8003696:	4641      	mov	r1, r8
 8003698:	6820      	ldr	r0, [r4, #0]
 800369a:	f000 faac 	bl	8003bf6 <memmove>
 800369e:	68a3      	ldr	r3, [r4, #8]
 80036a0:	2000      	movs	r0, #0
 80036a2:	1b9b      	subs	r3, r3, r6
 80036a4:	60a3      	str	r3, [r4, #8]
 80036a6:	6823      	ldr	r3, [r4, #0]
 80036a8:	441e      	add	r6, r3
 80036aa:	6026      	str	r6, [r4, #0]
 80036ac:	e7dc      	b.n	8003668 <__ssputs_r+0x58>
 80036ae:	462a      	mov	r2, r5
 80036b0:	f000 fb60 	bl	8003d74 <_realloc_r>
 80036b4:	4606      	mov	r6, r0
 80036b6:	2800      	cmp	r0, #0
 80036b8:	d1e2      	bne.n	8003680 <__ssputs_r+0x70>
 80036ba:	6921      	ldr	r1, [r4, #16]
 80036bc:	4650      	mov	r0, sl
 80036be:	f000 fab3 	bl	8003c28 <_free_r>
 80036c2:	e7c8      	b.n	8003656 <__ssputs_r+0x46>

080036c4 <_svfiprintf_r>:
 80036c4:	e92d 4ff0 	stmdb	sp!, {r4, r5, r6, r7, r8, r9, sl, fp, lr}
 80036c8:	461d      	mov	r5, r3
 80036ca:	898b      	ldrh	r3, [r1, #12]
 80036cc:	b09d      	sub	sp, #116	; 0x74
 80036ce:	061f      	lsls	r7, r3, #24
 80036d0:	4680      	mov	r8, r0
 80036d2:	460c      	mov	r4, r1
 80036d4:	4616      	mov	r6, r2
 80036d6:	d50f      	bpl.n	80036f8 <_svfiprintf_r+0x34>
 80036d8:	690b      	ldr	r3, [r1, #16]
 80036da:	b96b      	cbnz	r3, 80036f8 <_svfiprintf_r+0x34>
 80036dc:	2140      	movs	r1, #64	; 0x40
 80036de:	f000 faef 	bl	8003cc0 <_malloc_r>
 80036e2:	6020      	str	r0, [r4, #0]
 80036e4:	6120      	str	r0, [r4, #16]
 80036e6:	b928      	cbnz	r0, 80036f4 <_svfiprintf_r+0x30>
 80036e8:	230c      	movs	r3, #12
 80036ea:	f8c8 3000 	str.w	r3, [r8]
 80036ee:	f04f 30ff 	mov.w	r0, #4294967295	; 0xffffffff
 80036f2:	e0c8      	b.n	8003886 <_svfiprintf_r+0x1c2>
 80036f4:	2340      	movs	r3, #64	; 0x40
 80036f6:	6163      	str	r3, [r4, #20]
 80036f8:	2300      	movs	r3, #0
 80036fa:	9309      	str	r3, [sp, #36]	; 0x24
 80036fc:	2320      	movs	r3, #32
 80036fe:	f88d 3029 	strb.w	r3, [sp, #41]	; 0x29
 8003702:	2330      	movs	r3, #48	; 0x30
 8003704:	f04f 0b01 	mov.w	fp, #1
 8003708:	f88d 302a 	strb.w	r3, [sp, #42]	; 0x2a
 800370c:	9503      	str	r5, [sp, #12]
 800370e:	4637      	mov	r7, r6
 8003710:	463d      	mov	r5, r7
 8003712:	f815 3b01 	ldrb.w	r3, [r5], #1
 8003716:	b10b      	cbz	r3, 800371c <_svfiprintf_r+0x58>
 8003718:	2b25      	cmp	r3, #37	; 0x25
 800371a:	d13e      	bne.n	800379a <_svfiprintf_r+0xd6>
 800371c:	ebb7 0a06 	subs.w	sl, r7, r6
 8003720:	d00b      	beq.n	800373a <_svfiprintf_r+0x76>
 8003722:	4653      	mov	r3, sl
 8003724:	4632      	mov	r2, r6
 8003726:	4621      	mov	r1, r4
 8003728:	4640      	mov	r0, r8
 800372a:	f7ff ff71 	bl	8003610 <__ssputs_r>
 800372e:	3001      	adds	r0, #1
 8003730:	f000 80a4 	beq.w	800387c <_svfiprintf_r+0x1b8>
 8003734:	9b09      	ldr	r3, [sp, #36]	; 0x24
 8003736:	4453      	add	r3, sl
 8003738:	9309      	str	r3, [sp, #36]	; 0x24
 800373a:	783b      	ldrb	r3, [r7, #0]
 800373c:	2b00      	cmp	r3, #0
 800373e:	f000 809d 	beq.w	800387c <_svfiprintf_r+0x1b8>
 8003742:	2300      	movs	r3, #0
 8003744:	f04f 32ff 	mov.w	r2, #4294967295	; 0xffffffff
 8003748:	e9cd 2305 	strd	r2, r3, [sp, #20]
 800374c:	9304      	str	r3, [sp, #16]
 800374e:	9307      	str	r3, [sp, #28]
 8003750:	f88d 3053 	strb.w	r3, [sp, #83]	; 0x53
 8003754:	931a      	str	r3, [sp, #104]	; 0x68
 8003756:	462f      	mov	r7, r5
 8003758:	2205      	movs	r2, #5
 800375a:	f817 1b01 	ldrb.w	r1, [r7], #1
 800375e:	4850      	ldr	r0, [pc, #320]	; (80038a0 <_svfiprintf_r+0x1dc>)
 8003760:	f000 fa30 	bl	8003bc4 <memchr>
 8003764:	9b04      	ldr	r3, [sp, #16]
 8003766:	b9d0      	cbnz	r0, 800379e <_svfiprintf_r+0xda>
 8003768:	06d9      	lsls	r1, r3, #27
 800376a:	bf44      	itt	mi
 800376c:	2220      	movmi	r2, #32
 800376e:	f88d 2053 	strbmi.w	r2, [sp, #83]	; 0x53
 8003772:	071a      	lsls	r2, r3, #28
 8003774:	bf44      	itt	mi
 8003776:	222b      	movmi	r2, #43	; 0x2b
 8003778:	f88d 2053 	strbmi.w	r2, [sp, #83]	; 0x53
 800377c:	782a      	ldrb	r2, [r5, #0]
 800377e:	2a2a      	cmp	r2, #42	; 0x2a
 8003780:	d015      	beq.n	80037ae <_svfiprintf_r+0xea>
 8003782:	462f      	mov	r7, r5
 8003784:	2000      	movs	r0, #0
 8003786:	250a      	movs	r5, #10
 8003788:	9a07      	ldr	r2, [sp, #28]
 800378a:	4639      	mov	r1, r7
 800378c:	f811 3b01 	ldrb.w	r3, [r1], #1
 8003790:	3b30      	subs	r3, #48	; 0x30
 8003792:	2b09      	cmp	r3, #9
 8003794:	d94d      	bls.n	8003832 <_svfiprintf_r+0x16e>
 8003796:	b1b8      	cbz	r0, 80037c8 <_svfiprintf_r+0x104>
 8003798:	e00f      	b.n	80037ba <_svfiprintf_r+0xf6>
 800379a:	462f      	mov	r7, r5
 800379c:	e7b8      	b.n	8003710 <_svfiprintf_r+0x4c>
 800379e:	4a40      	ldr	r2, [pc, #256]	; (80038a0 <_svfiprintf_r+0x1dc>)
 80037a0:	463d      	mov	r5, r7
 80037a2:	1a80      	subs	r0, r0, r2
 80037a4:	fa0b f000 	lsl.w	r0, fp, r0
 80037a8:	4318      	orrs	r0, r3
 80037aa:	9004      	str	r0, [sp, #16]
 80037ac:	e7d3      	b.n	8003756 <_svfiprintf_r+0x92>
 80037ae:	9a03      	ldr	r2, [sp, #12]
 80037b0:	1d11      	adds	r1, r2, #4
 80037b2:	6812      	ldr	r2, [r2, #0]
 80037b4:	9103      	str	r1, [sp, #12]
 80037b6:	2a00      	cmp	r2, #0
 80037b8:	db01      	blt.n	80037be <_svfiprintf_r+0xfa>
 80037ba:	9207      	str	r2, [sp, #28]
 80037bc:	e004      	b.n	80037c8 <_svfiprintf_r+0x104>
 80037be:	4252      	negs	r2, r2
 80037c0:	f043 0302 	orr.w	r3, r3, #2
 80037c4:	9207      	str	r2, [sp, #28]
 80037c6:	9304      	str	r3, [sp, #16]
 80037c8:	783b      	ldrb	r3, [r7, #0]
 80037ca:	2b2e      	cmp	r3, #46	; 0x2e
 80037cc:	d10c      	bne.n	80037e8 <_svfiprintf_r+0x124>
 80037ce:	787b      	ldrb	r3, [r7, #1]
 80037d0:	2b2a      	cmp	r3, #42	; 0x2a
 80037d2:	d133      	bne.n	800383c <_svfiprintf_r+0x178>
 80037d4:	9b03      	ldr	r3, [sp, #12]
 80037d6:	3702      	adds	r7, #2
 80037d8:	1d1a      	adds	r2, r3, #4
 80037da:	681b      	ldr	r3, [r3, #0]
 80037dc:	9203      	str	r2, [sp, #12]
 80037de:	2b00      	cmp	r3, #0
 80037e0:	bfb8      	it	lt
 80037e2:	f04f 33ff 	movlt.w	r3, #4294967295	; 0xffffffff
 80037e6:	9305      	str	r3, [sp, #20]
 80037e8:	4d2e      	ldr	r5, [pc, #184]	; (80038a4 <_svfiprintf_r+0x1e0>)
 80037ea:	2203      	movs	r2, #3
 80037ec:	7839      	ldrb	r1, [r7, #0]
 80037ee:	4628      	mov	r0, r5
 80037f0:	f000 f9e8 	bl	8003bc4 <memchr>
 80037f4:	b138      	cbz	r0, 8003806 <_svfiprintf_r+0x142>
 80037f6:	2340      	movs	r3, #64	; 0x40
 80037f8:	1b40      	subs	r0, r0, r5
 80037fa:	fa03 f000 	lsl.w	r0, r3, r0
 80037fe:	9b04      	ldr	r3, [sp, #16]
 8003800:	3701      	adds	r7, #1
 8003802:	4303      	orrs	r3, r0
 8003804:	9304      	str	r3, [sp, #16]
 8003806:	7839      	ldrb	r1, [r7, #0]
 8003808:	2206      	movs	r2, #6
 800380a:	4827      	ldr	r0, [pc, #156]	; (80038a8 <_svfiprintf_r+0x1e4>)
 800380c:	1c7e      	adds	r6, r7, #1
 800380e:	f88d 1028 	strb.w	r1, [sp, #40]	; 0x28
 8003812:	f000 f9d7 	bl	8003bc4 <memchr>
 8003816:	2800      	cmp	r0, #0
 8003818:	d038      	beq.n	800388c <_svfiprintf_r+0x1c8>
 800381a:	4b24      	ldr	r3, [pc, #144]	; (80038ac <_svfiprintf_r+0x1e8>)
 800381c:	bb13      	cbnz	r3, 8003864 <_svfiprintf_r+0x1a0>
 800381e:	9b03      	ldr	r3, [sp, #12]
 8003820:	3307      	adds	r3, #7
 8003822:	f023 0307 	bic.w	r3, r3, #7
 8003826:	3308      	adds	r3, #8
 8003828:	9303      	str	r3, [sp, #12]
 800382a:	9b09      	ldr	r3, [sp, #36]	; 0x24
 800382c:	444b      	add	r3, r9
 800382e:	9309      	str	r3, [sp, #36]	; 0x24
 8003830:	e76d      	b.n	800370e <_svfiprintf_r+0x4a>
 8003832:	fb05 3202 	mla	r2, r5, r2, r3
 8003836:	2001      	movs	r0, #1
 8003838:	460f      	mov	r7, r1
 800383a:	e7a6      	b.n	800378a <_svfiprintf_r+0xc6>
 800383c:	2300      	movs	r3, #0
 800383e:	250a      	movs	r5, #10
 8003840:	4619      	mov	r1, r3
 8003842:	3701      	adds	r7, #1
 8003844:	9305      	str	r3, [sp, #20]
 8003846:	4638      	mov	r0, r7
 8003848:	f810 2b01 	ldrb.w	r2, [r0], #1
 800384c:	3a30      	subs	r2, #48	; 0x30
 800384e:	2a09      	cmp	r2, #9
 8003850:	d903      	bls.n	800385a <_svfiprintf_r+0x196>
 8003852:	2b00      	cmp	r3, #0
 8003854:	d0c8      	beq.n	80037e8 <_svfiprintf_r+0x124>
 8003856:	9105      	str	r1, [sp, #20]
 8003858:	e7c6      	b.n	80037e8 <_svfiprintf_r+0x124>
 800385a:	fb05 2101 	mla	r1, r5, r1, r2
 800385e:	2301      	movs	r3, #1
 8003860:	4607      	mov	r7, r0
 8003862:	e7f0      	b.n	8003846 <_svfiprintf_r+0x182>
 8003864:	ab03      	add	r3, sp, #12
 8003866:	9300      	str	r3, [sp, #0]
 8003868:	4622      	mov	r2, r4
 800386a:	4b11      	ldr	r3, [pc, #68]	; (80038b0 <_svfiprintf_r+0x1ec>)
 800386c:	a904      	add	r1, sp, #16
 800386e:	4640      	mov	r0, r8
 8003870:	f3af 8000 	nop.w
 8003874:	f1b0 3fff 	cmp.w	r0, #4294967295	; 0xffffffff
 8003878:	4681      	mov	r9, r0
 800387a:	d1d6      	bne.n	800382a <_svfiprintf_r+0x166>
 800387c:	89a3      	ldrh	r3, [r4, #12]
 800387e:	065b      	lsls	r3, r3, #25
 8003880:	f53f af35 	bmi.w	80036ee <_svfiprintf_r+0x2a>
 8003884:	9809      	ldr	r0, [sp, #36]	; 0x24
 8003886:	b01d      	add	sp, #116	; 0x74
 8003888:	e8bd 8ff0 	ldmia.w	sp!, {r4, r5, r6, r7, r8, r9, sl, fp, pc}
 800388c:	ab03      	add	r3, sp, #12
 800388e:	9300      	str	r3, [sp, #0]
 8003890:	4622      	mov	r2, r4
 8003892:	4b07      	ldr	r3, [pc, #28]	; (80038b0 <_svfiprintf_r+0x1ec>)
 8003894:	a904      	add	r1, sp, #16
 8003896:	4640      	mov	r0, r8
 8003898:	f000 f882 	bl	80039a0 <_printf_i>
 800389c:	e7ea      	b.n	8003874 <_svfiprintf_r+0x1b0>
 800389e:	bf00      	nop
 80038a0:	08005dbe 	.word	0x08005dbe
 80038a4:	08005dc4 	.word	0x08005dc4
 80038a8:	08005dc8 	.word	0x08005dc8
 80038ac:	00000000 	.word	0x00000000
 80038b0:	08003611 	.word	0x08003611

080038b4 <_printf_common>:
 80038b4:	e92d 47f0 	stmdb	sp!, {r4, r5, r6, r7, r8, r9, sl, lr}
 80038b8:	4691      	mov	r9, r2
 80038ba:	461f      	mov	r7, r3
 80038bc:	688a      	ldr	r2, [r1, #8]
 80038be:	690b      	ldr	r3, [r1, #16]
 80038c0:	4606      	mov	r6, r0
 80038c2:	4293      	cmp	r3, r2
 80038c4:	bfb8      	it	lt
 80038c6:	4613      	movlt	r3, r2
 80038c8:	f8c9 3000 	str.w	r3, [r9]
 80038cc:	f891 2043 	ldrb.w	r2, [r1, #67]	; 0x43
 80038d0:	460c      	mov	r4, r1
 80038d2:	f8dd 8020 	ldr.w	r8, [sp, #32]
 80038d6:	b112      	cbz	r2, 80038de <_printf_common+0x2a>
 80038d8:	3301      	adds	r3, #1
 80038da:	f8c9 3000 	str.w	r3, [r9]
 80038de:	6823      	ldr	r3, [r4, #0]
 80038e0:	0699      	lsls	r1, r3, #26
 80038e2:	bf42      	ittt	mi
 80038e4:	f8d9 3000 	ldrmi.w	r3, [r9]
 80038e8:	3302      	addmi	r3, #2
 80038ea:	f8c9 3000 	strmi.w	r3, [r9]
 80038ee:	6825      	ldr	r5, [r4, #0]
 80038f0:	f015 0506 	ands.w	r5, r5, #6
 80038f4:	d107      	bne.n	8003906 <_printf_common+0x52>
 80038f6:	f104 0a19 	add.w	sl, r4, #25
 80038fa:	68e3      	ldr	r3, [r4, #12]
 80038fc:	f8d9 2000 	ldr.w	r2, [r9]
 8003900:	1a9b      	subs	r3, r3, r2
 8003902:	42ab      	cmp	r3, r5
 8003904:	dc29      	bgt.n	800395a <_printf_common+0xa6>
 8003906:	f894 3043 	ldrb.w	r3, [r4, #67]	; 0x43
 800390a:	6822      	ldr	r2, [r4, #0]
 800390c:	3300      	adds	r3, #0
 800390e:	bf18      	it	ne
 8003910:	2301      	movne	r3, #1
 8003912:	0692      	lsls	r2, r2, #26
 8003914:	d42e      	bmi.n	8003974 <_printf_common+0xc0>
 8003916:	f104 0243 	add.w	r2, r4, #67	; 0x43
 800391a:	4639      	mov	r1, r7
 800391c:	4630      	mov	r0, r6
 800391e:	47c0      	blx	r8
 8003920:	3001      	adds	r0, #1
 8003922:	d021      	beq.n	8003968 <_printf_common+0xb4>
 8003924:	6823      	ldr	r3, [r4, #0]
 8003926:	68e5      	ldr	r5, [r4, #12]
 8003928:	f003 0306 	and.w	r3, r3, #6
 800392c:	2b04      	cmp	r3, #4
 800392e:	bf18      	it	ne
 8003930:	2500      	movne	r5, #0
 8003932:	f8d9 2000 	ldr.w	r2, [r9]
 8003936:	f04f 0900 	mov.w	r9, #0
 800393a:	bf08      	it	eq
 800393c:	1aad      	subeq	r5, r5, r2
 800393e:	68a3      	ldr	r3, [r4, #8]
 8003940:	6922      	ldr	r2, [r4, #16]
 8003942:	bf08      	it	eq
 8003944:	ea25 75e5 	biceq.w	r5, r5, r5, asr #31
 8003948:	4293      	cmp	r3, r2
 800394a:	bfc4      	itt	gt
 800394c:	1a9b      	subgt	r3, r3, r2
 800394e:	18ed      	addgt	r5, r5, r3
 8003950:	341a      	adds	r4, #26
 8003952:	454d      	cmp	r5, r9
 8003954:	d11a      	bne.n	800398c <_printf_common+0xd8>
 8003956:	2000      	movs	r0, #0
 8003958:	e008      	b.n	800396c <_printf_common+0xb8>
 800395a:	2301      	movs	r3, #1
 800395c:	4652      	mov	r2, sl
 800395e:	4639      	mov	r1, r7
 8003960:	4630      	mov	r0, r6
 8003962:	47c0      	blx	r8
 8003964:	3001      	adds	r0, #1
 8003966:	d103      	bne.n	8003970 <_printf_common+0xbc>
 8003968:	f04f 30ff 	mov.w	r0, #4294967295	; 0xffffffff
 800396c:	e8bd 87f0 	ldmia.w	sp!, {r4, r5, r6, r7, r8, r9, sl, pc}
 8003970:	3501      	adds	r5, #1
 8003972:	e7c2      	b.n	80038fa <_printf_common+0x46>
 8003974:	2030      	movs	r0, #48	; 0x30
 8003976:	18e1      	adds	r1, r4, r3
 8003978:	f881 0043 	strb.w	r0, [r1, #67]	; 0x43
 800397c:	1c5a      	adds	r2, r3, #1
 800397e:	f894 1045 	ldrb.w	r1, [r4, #69]	; 0x45
 8003982:	4422      	add	r2, r4
 8003984:	3302      	adds	r3, #2
 8003986:	f882 1043 	strb.w	r1, [r2, #67]	; 0x43
 800398a:	e7c4      	b.n	8003916 <_printf_common+0x62>
 800398c:	2301      	movs	r3, #1
 800398e:	4622      	mov	r2, r4
 8003990:	4639      	mov	r1, r7
 8003992:	4630      	mov	r0, r6
 8003994:	47c0      	blx	r8
 8003996:	3001      	adds	r0, #1
 8003998:	d0e6      	beq.n	8003968 <_printf_common+0xb4>
 800399a:	f109 0901 	add.w	r9, r9, #1
 800399e:	e7d8      	b.n	8003952 <_printf_common+0x9e>

080039a0 <_printf_i>:
 80039a0:	e92d 43f0 	stmdb	sp!, {r4, r5, r6, r7, r8, r9, lr}
 80039a4:	f101 0c43 	add.w	ip, r1, #67	; 0x43
 80039a8:	460c      	mov	r4, r1
 80039aa:	7e09      	ldrb	r1, [r1, #24]
 80039ac:	b085      	sub	sp, #20
 80039ae:	296e      	cmp	r1, #110	; 0x6e
 80039b0:	4617      	mov	r7, r2
 80039b2:	4606      	mov	r6, r0
 80039b4:	4698      	mov	r8, r3
 80039b6:	9a0c      	ldr	r2, [sp, #48]	; 0x30
 80039b8:	f000 80b3 	beq.w	8003b22 <_printf_i+0x182>
 80039bc:	d822      	bhi.n	8003a04 <_printf_i+0x64>
 80039be:	2963      	cmp	r1, #99	; 0x63
 80039c0:	d036      	beq.n	8003a30 <_printf_i+0x90>
 80039c2:	d80a      	bhi.n	80039da <_printf_i+0x3a>
 80039c4:	2900      	cmp	r1, #0
 80039c6:	f000 80b9 	beq.w	8003b3c <_printf_i+0x19c>
 80039ca:	2958      	cmp	r1, #88	; 0x58
 80039cc:	f000 8083 	beq.w	8003ad6 <_printf_i+0x136>
 80039d0:	f104 0542 	add.w	r5, r4, #66	; 0x42
 80039d4:	f884 1042 	strb.w	r1, [r4, #66]	; 0x42
 80039d8:	e032      	b.n	8003a40 <_printf_i+0xa0>
 80039da:	2964      	cmp	r1, #100	; 0x64
 80039dc:	d001      	beq.n	80039e2 <_printf_i+0x42>
 80039de:	2969      	cmp	r1, #105	; 0x69
 80039e0:	d1f6      	bne.n	80039d0 <_printf_i+0x30>
 80039e2:	6820      	ldr	r0, [r4, #0]
 80039e4:	6813      	ldr	r3, [r2, #0]
 80039e6:	0605      	lsls	r5, r0, #24
 80039e8:	f103 0104 	add.w	r1, r3, #4
 80039ec:	d52a      	bpl.n	8003a44 <_printf_i+0xa4>
 80039ee:	681b      	ldr	r3, [r3, #0]
 80039f0:	6011      	str	r1, [r2, #0]
 80039f2:	2b00      	cmp	r3, #0
 80039f4:	da03      	bge.n	80039fe <_printf_i+0x5e>
 80039f6:	222d      	movs	r2, #45	; 0x2d
 80039f8:	425b      	negs	r3, r3
 80039fa:	f884 2043 	strb.w	r2, [r4, #67]	; 0x43
 80039fe:	486f      	ldr	r0, [pc, #444]	; (8003bbc <_printf_i+0x21c>)
 8003a00:	220a      	movs	r2, #10
 8003a02:	e039      	b.n	8003a78 <_printf_i+0xd8>
 8003a04:	2973      	cmp	r1, #115	; 0x73
 8003a06:	f000 809d 	beq.w	8003b44 <_printf_i+0x1a4>
 8003a0a:	d808      	bhi.n	8003a1e <_printf_i+0x7e>
 8003a0c:	296f      	cmp	r1, #111	; 0x6f
 8003a0e:	d020      	beq.n	8003a52 <_printf_i+0xb2>
 8003a10:	2970      	cmp	r1, #112	; 0x70
 8003a12:	d1dd      	bne.n	80039d0 <_printf_i+0x30>
 8003a14:	6823      	ldr	r3, [r4, #0]
 8003a16:	f043 0320 	orr.w	r3, r3, #32
 8003a1a:	6023      	str	r3, [r4, #0]
 8003a1c:	e003      	b.n	8003a26 <_printf_i+0x86>
 8003a1e:	2975      	cmp	r1, #117	; 0x75
 8003a20:	d017      	beq.n	8003a52 <_printf_i+0xb2>
 8003a22:	2978      	cmp	r1, #120	; 0x78
 8003a24:	d1d4      	bne.n	80039d0 <_printf_i+0x30>
 8003a26:	2378      	movs	r3, #120	; 0x78
 8003a28:	4865      	ldr	r0, [pc, #404]	; (8003bc0 <_printf_i+0x220>)
 8003a2a:	f884 3045 	strb.w	r3, [r4, #69]	; 0x45
 8003a2e:	e055      	b.n	8003adc <_printf_i+0x13c>
 8003a30:	6813      	ldr	r3, [r2, #0]
 8003a32:	f104 0542 	add.w	r5, r4, #66	; 0x42
 8003a36:	1d19      	adds	r1, r3, #4
 8003a38:	681b      	ldr	r3, [r3, #0]
 8003a3a:	6011      	str	r1, [r2, #0]
 8003a3c:	f884 3042 	strb.w	r3, [r4, #66]	; 0x42
 8003a40:	2301      	movs	r3, #1
 8003a42:	e08c      	b.n	8003b5e <_printf_i+0x1be>
 8003a44:	681b      	ldr	r3, [r3, #0]
 8003a46:	f010 0f40 	tst.w	r0, #64	; 0x40
 8003a4a:	6011      	str	r1, [r2, #0]
 8003a4c:	bf18      	it	ne
 8003a4e:	b21b      	sxthne	r3, r3
 8003a50:	e7cf      	b.n	80039f2 <_printf_i+0x52>
 8003a52:	6813      	ldr	r3, [r2, #0]
 8003a54:	6825      	ldr	r5, [r4, #0]
 8003a56:	1d18      	adds	r0, r3, #4
 8003a58:	6010      	str	r0, [r2, #0]
 8003a5a:	0628      	lsls	r0, r5, #24
 8003a5c:	d501      	bpl.n	8003a62 <_printf_i+0xc2>
 8003a5e:	681b      	ldr	r3, [r3, #0]
 8003a60:	e002      	b.n	8003a68 <_printf_i+0xc8>
 8003a62:	0668      	lsls	r0, r5, #25
 8003a64:	d5fb      	bpl.n	8003a5e <_printf_i+0xbe>
 8003a66:	881b      	ldrh	r3, [r3, #0]
 8003a68:	296f      	cmp	r1, #111	; 0x6f
 8003a6a:	bf14      	ite	ne
 8003a6c:	220a      	movne	r2, #10
 8003a6e:	2208      	moveq	r2, #8
 8003a70:	4852      	ldr	r0, [pc, #328]	; (8003bbc <_printf_i+0x21c>)
 8003a72:	2100      	movs	r1, #0
 8003a74:	f884 1043 	strb.w	r1, [r4, #67]	; 0x43
 8003a78:	6865      	ldr	r5, [r4, #4]
 8003a7a:	2d00      	cmp	r5, #0
 8003a7c:	60a5      	str	r5, [r4, #8]
 8003a7e:	f2c0 8095 	blt.w	8003bac <_printf_i+0x20c>
 8003a82:	6821      	ldr	r1, [r4, #0]
 8003a84:	f021 0104 	bic.w	r1, r1, #4
 8003a88:	6021      	str	r1, [r4, #0]
 8003a8a:	2b00      	cmp	r3, #0
 8003a8c:	d13d      	bne.n	8003b0a <_printf_i+0x16a>
 8003a8e:	2d00      	cmp	r5, #0
 8003a90:	f040 808e 	bne.w	8003bb0 <_printf_i+0x210>
 8003a94:	4665      	mov	r5, ip
 8003a96:	2a08      	cmp	r2, #8
 8003a98:	d10b      	bne.n	8003ab2 <_printf_i+0x112>
 8003a9a:	6823      	ldr	r3, [r4, #0]
 8003a9c:	07db      	lsls	r3, r3, #31
 8003a9e:	d508      	bpl.n	8003ab2 <_printf_i+0x112>
 8003aa0:	6923      	ldr	r3, [r4, #16]
 8003aa2:	6862      	ldr	r2, [r4, #4]
 8003aa4:	429a      	cmp	r2, r3
 8003aa6:	bfde      	ittt	le
 8003aa8:	2330      	movle	r3, #48	; 0x30
 8003aaa:	f805 3c01 	strble.w	r3, [r5, #-1]
 8003aae:	f105 35ff 	addle.w	r5, r5, #4294967295	; 0xffffffff
 8003ab2:	ebac 0305 	sub.w	r3, ip, r5
 8003ab6:	6123      	str	r3, [r4, #16]
 8003ab8:	f8cd 8000 	str.w	r8, [sp]
 8003abc:	463b      	mov	r3, r7
 8003abe:	aa03      	add	r2, sp, #12
 8003ac0:	4621      	mov	r1, r4
 8003ac2:	4630      	mov	r0, r6
 8003ac4:	f7ff fef6 	bl	80038b4 <_printf_common>
 8003ac8:	3001      	adds	r0, #1
 8003aca:	d14d      	bne.n	8003b68 <_printf_i+0x1c8>
 8003acc:	f04f 30ff 	mov.w	r0, #4294967295	; 0xffffffff
 8003ad0:	b005      	add	sp, #20
 8003ad2:	e8bd 83f0 	ldmia.w	sp!, {r4, r5, r6, r7, r8, r9, pc}
 8003ad6:	4839      	ldr	r0, [pc, #228]	; (8003bbc <_printf_i+0x21c>)
 8003ad8:	f884 1045 	strb.w	r1, [r4, #69]	; 0x45
 8003adc:	6813      	ldr	r3, [r2, #0]
 8003ade:	6821      	ldr	r1, [r4, #0]
 8003ae0:	1d1d      	adds	r5, r3, #4
 8003ae2:	681b      	ldr	r3, [r3, #0]
 8003ae4:	6015      	str	r5, [r2, #0]
 8003ae6:	060a      	lsls	r2, r1, #24
 8003ae8:	d50b      	bpl.n	8003b02 <_printf_i+0x162>
 8003aea:	07ca      	lsls	r2, r1, #31
 8003aec:	bf44      	itt	mi
 8003aee:	f041 0120 	orrmi.w	r1, r1, #32
 8003af2:	6021      	strmi	r1, [r4, #0]
 8003af4:	b91b      	cbnz	r3, 8003afe <_printf_i+0x15e>
 8003af6:	6822      	ldr	r2, [r4, #0]
 8003af8:	f022 0220 	bic.w	r2, r2, #32
 8003afc:	6022      	str	r2, [r4, #0]
 8003afe:	2210      	movs	r2, #16
 8003b00:	e7b7      	b.n	8003a72 <_printf_i+0xd2>
 8003b02:	064d      	lsls	r5, r1, #25
 8003b04:	bf48      	it	mi
 8003b06:	b29b      	uxthmi	r3, r3
 8003b08:	e7ef      	b.n	8003aea <_printf_i+0x14a>
 8003b0a:	4665      	mov	r5, ip
 8003b0c:	fbb3 f1f2 	udiv	r1, r3, r2
 8003b10:	fb02 3311 	mls	r3, r2, r1, r3
 8003b14:	5cc3      	ldrb	r3, [r0, r3]
 8003b16:	f805 3d01 	strb.w	r3, [r5, #-1]!
 8003b1a:	460b      	mov	r3, r1
 8003b1c:	2900      	cmp	r1, #0
 8003b1e:	d1f5      	bne.n	8003b0c <_printf_i+0x16c>
 8003b20:	e7b9      	b.n	8003a96 <_printf_i+0xf6>
 8003b22:	6813      	ldr	r3, [r2, #0]
 8003b24:	6825      	ldr	r5, [r4, #0]
 8003b26:	1d18      	adds	r0, r3, #4
 8003b28:	6961      	ldr	r1, [r4, #20]
 8003b2a:	6010      	str	r0, [r2, #0]
 8003b2c:	0628      	lsls	r0, r5, #24
 8003b2e:	681b      	ldr	r3, [r3, #0]
 8003b30:	d501      	bpl.n	8003b36 <_printf_i+0x196>
 8003b32:	6019      	str	r1, [r3, #0]
 8003b34:	e002      	b.n	8003b3c <_printf_i+0x19c>
 8003b36:	066a      	lsls	r2, r5, #25
 8003b38:	d5fb      	bpl.n	8003b32 <_printf_i+0x192>
 8003b3a:	8019      	strh	r1, [r3, #0]
 8003b3c:	2300      	movs	r3, #0
 8003b3e:	4665      	mov	r5, ip
 8003b40:	6123      	str	r3, [r4, #16]
 8003b42:	e7b9      	b.n	8003ab8 <_printf_i+0x118>
 8003b44:	6813      	ldr	r3, [r2, #0]
 8003b46:	1d19      	adds	r1, r3, #4
 8003b48:	6011      	str	r1, [r2, #0]
 8003b4a:	681d      	ldr	r5, [r3, #0]
 8003b4c:	6862      	ldr	r2, [r4, #4]
 8003b4e:	2100      	movs	r1, #0
 8003b50:	4628      	mov	r0, r5
 8003b52:	f000 f837 	bl	8003bc4 <memchr>
 8003b56:	b108      	cbz	r0, 8003b5c <_printf_i+0x1bc>
 8003b58:	1b40      	subs	r0, r0, r5
 8003b5a:	6060      	str	r0, [r4, #4]
 8003b5c:	6863      	ldr	r3, [r4, #4]
 8003b5e:	6123      	str	r3, [r4, #16]
 8003b60:	2300      	movs	r3, #0
 8003b62:	f884 3043 	strb.w	r3, [r4, #67]	; 0x43
 8003b66:	e7a7      	b.n	8003ab8 <_printf_i+0x118>
 8003b68:	6923      	ldr	r3, [r4, #16]
 8003b6a:	462a      	mov	r2, r5
 8003b6c:	4639      	mov	r1, r7
 8003b6e:	4630      	mov	r0, r6
 8003b70:	47c0      	blx	r8
 8003b72:	3001      	adds	r0, #1
 8003b74:	d0aa      	beq.n	8003acc <_printf_i+0x12c>
 8003b76:	6823      	ldr	r3, [r4, #0]
 8003b78:	079b      	lsls	r3, r3, #30
 8003b7a:	d413      	bmi.n	8003ba4 <_printf_i+0x204>
 8003b7c:	68e0      	ldr	r0, [r4, #12]
 8003b7e:	9b03      	ldr	r3, [sp, #12]
 8003b80:	4298      	cmp	r0, r3
 8003b82:	bfb8      	it	lt
 8003b84:	4618      	movlt	r0, r3
 8003b86:	e7a3      	b.n	8003ad0 <_printf_i+0x130>
 8003b88:	2301      	movs	r3, #1
 8003b8a:	464a      	mov	r2, r9
 8003b8c:	4639      	mov	r1, r7
 8003b8e:	4630      	mov	r0, r6
 8003b90:	47c0      	blx	r8
 8003b92:	3001      	adds	r0, #1
 8003b94:	d09a      	beq.n	8003acc <_printf_i+0x12c>
 8003b96:	3501      	adds	r5, #1
 8003b98:	68e3      	ldr	r3, [r4, #12]
 8003b9a:	9a03      	ldr	r2, [sp, #12]
 8003b9c:	1a9b      	subs	r3, r3, r2
 8003b9e:	42ab      	cmp	r3, r5
 8003ba0:	dcf2      	bgt.n	8003b88 <_printf_i+0x1e8>
 8003ba2:	e7eb      	b.n	8003b7c <_printf_i+0x1dc>
 8003ba4:	2500      	movs	r5, #0
 8003ba6:	f104 0919 	add.w	r9, r4, #25
 8003baa:	e7f5      	b.n	8003b98 <_printf_i+0x1f8>
 8003bac:	2b00      	cmp	r3, #0
 8003bae:	d1ac      	bne.n	8003b0a <_printf_i+0x16a>
 8003bb0:	7803      	ldrb	r3, [r0, #0]
 8003bb2:	f104 0542 	add.w	r5, r4, #66	; 0x42
 8003bb6:	f884 3042 	strb.w	r3, [r4, #66]	; 0x42
 8003bba:	e76c      	b.n	8003a96 <_printf_i+0xf6>
 8003bbc:	08005dcf 	.word	0x08005dcf
 8003bc0:	08005de0 	.word	0x08005de0

08003bc4 <memchr>:
 8003bc4:	b510      	push	{r4, lr}
 8003bc6:	b2c9      	uxtb	r1, r1
 8003bc8:	4402      	add	r2, r0
 8003bca:	4290      	cmp	r0, r2
 8003bcc:	4603      	mov	r3, r0
 8003bce:	d101      	bne.n	8003bd4 <memchr+0x10>
 8003bd0:	2300      	movs	r3, #0
 8003bd2:	e003      	b.n	8003bdc <memchr+0x18>
 8003bd4:	781c      	ldrb	r4, [r3, #0]
 8003bd6:	3001      	adds	r0, #1
 8003bd8:	428c      	cmp	r4, r1
 8003bda:	d1f6      	bne.n	8003bca <memchr+0x6>
 8003bdc:	4618      	mov	r0, r3
 8003bde:	bd10      	pop	{r4, pc}

08003be0 <memcpy>:
 8003be0:	b510      	push	{r4, lr}
 8003be2:	1e43      	subs	r3, r0, #1
 8003be4:	440a      	add	r2, r1
 8003be6:	4291      	cmp	r1, r2
 8003be8:	d100      	bne.n	8003bec <memcpy+0xc>
 8003bea:	bd10      	pop	{r4, pc}
 8003bec:	f811 4b01 	ldrb.w	r4, [r1], #1
 8003bf0:	f803 4f01 	strb.w	r4, [r3, #1]!
 8003bf4:	e7f7      	b.n	8003be6 <memcpy+0x6>

08003bf6 <memmove>:
 8003bf6:	4288      	cmp	r0, r1
 8003bf8:	b510      	push	{r4, lr}
 8003bfa:	eb01 0302 	add.w	r3, r1, r2
 8003bfe:	d807      	bhi.n	8003c10 <memmove+0x1a>
 8003c00:	1e42      	subs	r2, r0, #1
 8003c02:	4299      	cmp	r1, r3
 8003c04:	d00a      	beq.n	8003c1c <memmove+0x26>
 8003c06:	f811 4b01 	ldrb.w	r4, [r1], #1
 8003c0a:	f802 4f01 	strb.w	r4, [r2, #1]!
 8003c0e:	e7f8      	b.n	8003c02 <memmove+0xc>
 8003c10:	4283      	cmp	r3, r0
 8003c12:	d9f5      	bls.n	8003c00 <memmove+0xa>
 8003c14:	1881      	adds	r1, r0, r2
 8003c16:	1ad2      	subs	r2, r2, r3
 8003c18:	42d3      	cmn	r3, r2
 8003c1a:	d100      	bne.n	8003c1e <memmove+0x28>
 8003c1c:	bd10      	pop	{r4, pc}
 8003c1e:	f813 4d01 	ldrb.w	r4, [r3, #-1]!
 8003c22:	f801 4d01 	strb.w	r4, [r1, #-1]!
 8003c26:	e7f7      	b.n	8003c18 <memmove+0x22>

08003c28 <_free_r>:
 8003c28:	b538      	push	{r3, r4, r5, lr}
 8003c2a:	4605      	mov	r5, r0
 8003c2c:	2900      	cmp	r1, #0
 8003c2e:	d043      	beq.n	8003cb8 <_free_r+0x90>
 8003c30:	f851 3c04 	ldr.w	r3, [r1, #-4]
 8003c34:	1f0c      	subs	r4, r1, #4
 8003c36:	2b00      	cmp	r3, #0
 8003c38:	bfb8      	it	lt
 8003c3a:	18e4      	addlt	r4, r4, r3
 8003c3c:	f000 f8d0 	bl	8003de0 <__malloc_lock>
 8003c40:	4a1e      	ldr	r2, [pc, #120]	; (8003cbc <_free_r+0x94>)
 8003c42:	6813      	ldr	r3, [r2, #0]
 8003c44:	4610      	mov	r0, r2
 8003c46:	b933      	cbnz	r3, 8003c56 <_free_r+0x2e>
 8003c48:	6063      	str	r3, [r4, #4]
 8003c4a:	6014      	str	r4, [r2, #0]
 8003c4c:	4628      	mov	r0, r5
 8003c4e:	e8bd 4038 	ldmia.w	sp!, {r3, r4, r5, lr}
 8003c52:	f000 b8c6 	b.w	8003de2 <__malloc_unlock>
 8003c56:	42a3      	cmp	r3, r4
 8003c58:	d90b      	bls.n	8003c72 <_free_r+0x4a>
 8003c5a:	6821      	ldr	r1, [r4, #0]
 8003c5c:	1862      	adds	r2, r4, r1
 8003c5e:	4293      	cmp	r3, r2
 8003c60:	bf01      	itttt	eq
 8003c62:	681a      	ldreq	r2, [r3, #0]
 8003c64:	685b      	ldreq	r3, [r3, #4]
 8003c66:	1852      	addeq	r2, r2, r1
 8003c68:	6022      	streq	r2, [r4, #0]
 8003c6a:	6063      	str	r3, [r4, #4]
 8003c6c:	6004      	str	r4, [r0, #0]
 8003c6e:	e7ed      	b.n	8003c4c <_free_r+0x24>
 8003c70:	4613      	mov	r3, r2
 8003c72:	685a      	ldr	r2, [r3, #4]
 8003c74:	b10a      	cbz	r2, 8003c7a <_free_r+0x52>
 8003c76:	42a2      	cmp	r2, r4
 8003c78:	d9fa      	bls.n	8003c70 <_free_r+0x48>
 8003c7a:	6819      	ldr	r1, [r3, #0]
 8003c7c:	1858      	adds	r0, r3, r1
 8003c7e:	42a0      	cmp	r0, r4
 8003c80:	d10b      	bne.n	8003c9a <_free_r+0x72>
 8003c82:	6820      	ldr	r0, [r4, #0]
 8003c84:	4401      	add	r1, r0
 8003c86:	1858      	adds	r0, r3, r1
 8003c88:	4282      	cmp	r2, r0
 8003c8a:	6019      	str	r1, [r3, #0]
 8003c8c:	d1de      	bne.n	8003c4c <_free_r+0x24>
 8003c8e:	6810      	ldr	r0, [r2, #0]
 8003c90:	6852      	ldr	r2, [r2, #4]
 8003c92:	4401      	add	r1, r0
 8003c94:	6019      	str	r1, [r3, #0]
 8003c96:	605a      	str	r2, [r3, #4]
 8003c98:	e7d8      	b.n	8003c4c <_free_r+0x24>
 8003c9a:	d902      	bls.n	8003ca2 <_free_r+0x7a>
 8003c9c:	230c      	movs	r3, #12
 8003c9e:	602b      	str	r3, [r5, #0]
 8003ca0:	e7d4      	b.n	8003c4c <_free_r+0x24>
 8003ca2:	6820      	ldr	r0, [r4, #0]
 8003ca4:	1821      	adds	r1, r4, r0
 8003ca6:	428a      	cmp	r2, r1
 8003ca8:	bf01      	itttt	eq
 8003caa:	6811      	ldreq	r1, [r2, #0]
 8003cac:	6852      	ldreq	r2, [r2, #4]
 8003cae:	1809      	addeq	r1, r1, r0
 8003cb0:	6021      	streq	r1, [r4, #0]
 8003cb2:	6062      	str	r2, [r4, #4]
 8003cb4:	605c      	str	r4, [r3, #4]
 8003cb6:	e7c9      	b.n	8003c4c <_free_r+0x24>
 8003cb8:	bd38      	pop	{r3, r4, r5, pc}
 8003cba:	bf00      	nop
 8003cbc:	200004a8 	.word	0x200004a8

08003cc0 <_malloc_r>:
 8003cc0:	b570      	push	{r4, r5, r6, lr}
 8003cc2:	1ccd      	adds	r5, r1, #3
 8003cc4:	f025 0503 	bic.w	r5, r5, #3
 8003cc8:	3508      	adds	r5, #8
 8003cca:	2d0c      	cmp	r5, #12
 8003ccc:	bf38      	it	cc
 8003cce:	250c      	movcc	r5, #12
 8003cd0:	2d00      	cmp	r5, #0
 8003cd2:	4606      	mov	r6, r0
 8003cd4:	db01      	blt.n	8003cda <_malloc_r+0x1a>
 8003cd6:	42a9      	cmp	r1, r5
 8003cd8:	d903      	bls.n	8003ce2 <_malloc_r+0x22>
 8003cda:	230c      	movs	r3, #12
 8003cdc:	6033      	str	r3, [r6, #0]
 8003cde:	2000      	movs	r0, #0
 8003ce0:	bd70      	pop	{r4, r5, r6, pc}
 8003ce2:	f000 f87d 	bl	8003de0 <__malloc_lock>
 8003ce6:	4a21      	ldr	r2, [pc, #132]	; (8003d6c <_malloc_r+0xac>)
 8003ce8:	6814      	ldr	r4, [r2, #0]
 8003cea:	4621      	mov	r1, r4
 8003cec:	b991      	cbnz	r1, 8003d14 <_malloc_r+0x54>
 8003cee:	4c20      	ldr	r4, [pc, #128]	; (8003d70 <_malloc_r+0xb0>)
 8003cf0:	6823      	ldr	r3, [r4, #0]
 8003cf2:	b91b      	cbnz	r3, 8003cfc <_malloc_r+0x3c>
 8003cf4:	4630      	mov	r0, r6
 8003cf6:	f000 f863 	bl	8003dc0 <_sbrk_r>
 8003cfa:	6020      	str	r0, [r4, #0]
 8003cfc:	4629      	mov	r1, r5
 8003cfe:	4630      	mov	r0, r6
 8003d00:	f000 f85e 	bl	8003dc0 <_sbrk_r>
 8003d04:	1c43      	adds	r3, r0, #1
 8003d06:	d124      	bne.n	8003d52 <_malloc_r+0x92>
 8003d08:	230c      	movs	r3, #12
 8003d0a:	4630      	mov	r0, r6
 8003d0c:	6033      	str	r3, [r6, #0]
 8003d0e:	f000 f868 	bl	8003de2 <__malloc_unlock>
 8003d12:	e7e4      	b.n	8003cde <_malloc_r+0x1e>
 8003d14:	680b      	ldr	r3, [r1, #0]
 8003d16:	1b5b      	subs	r3, r3, r5
 8003d18:	d418      	bmi.n	8003d4c <_malloc_r+0x8c>
 8003d1a:	2b0b      	cmp	r3, #11
 8003d1c:	d90f      	bls.n	8003d3e <_malloc_r+0x7e>
 8003d1e:	600b      	str	r3, [r1, #0]
 8003d20:	18cc      	adds	r4, r1, r3
 8003d22:	50cd      	str	r5, [r1, r3]
 8003d24:	4630      	mov	r0, r6
 8003d26:	f000 f85c 	bl	8003de2 <__malloc_unlock>
 8003d2a:	f104 000b 	add.w	r0, r4, #11
 8003d2e:	1d23      	adds	r3, r4, #4
 8003d30:	f020 0007 	bic.w	r0, r0, #7
 8003d34:	1ac3      	subs	r3, r0, r3
 8003d36:	d0d3      	beq.n	8003ce0 <_malloc_r+0x20>
 8003d38:	425a      	negs	r2, r3
 8003d3a:	50e2      	str	r2, [r4, r3]
 8003d3c:	e7d0      	b.n	8003ce0 <_malloc_r+0x20>
 8003d3e:	684b      	ldr	r3, [r1, #4]
 8003d40:	428c      	cmp	r4, r1
 8003d42:	bf16      	itet	ne
 8003d44:	6063      	strne	r3, [r4, #4]
 8003d46:	6013      	streq	r3, [r2, #0]
 8003d48:	460c      	movne	r4, r1
 8003d4a:	e7eb      	b.n	8003d24 <_malloc_r+0x64>
 8003d4c:	460c      	mov	r4, r1
 8003d4e:	6849      	ldr	r1, [r1, #4]
 8003d50:	e7cc      	b.n	8003cec <_malloc_r+0x2c>
 8003d52:	1cc4      	adds	r4, r0, #3
 8003d54:	f024 0403 	bic.w	r4, r4, #3
 8003d58:	42a0      	cmp	r0, r4
 8003d5a:	d005      	beq.n	8003d68 <_malloc_r+0xa8>
 8003d5c:	1a21      	subs	r1, r4, r0
 8003d5e:	4630      	mov	r0, r6
 8003d60:	f000 f82e 	bl	8003dc0 <_sbrk_r>
 8003d64:	3001      	adds	r0, #1
 8003d66:	d0cf      	beq.n	8003d08 <_malloc_r+0x48>
 8003d68:	6025      	str	r5, [r4, #0]
 8003d6a:	e7db      	b.n	8003d24 <_malloc_r+0x64>
 8003d6c:	200004a8 	.word	0x200004a8
 8003d70:	200004ac 	.word	0x200004ac

08003d74 <_realloc_r>:
 8003d74:	b5f8      	push	{r3, r4, r5, r6, r7, lr}
 8003d76:	4607      	mov	r7, r0
 8003d78:	4614      	mov	r4, r2
 8003d7a:	460e      	mov	r6, r1
 8003d7c:	b921      	cbnz	r1, 8003d88 <_realloc_r+0x14>
 8003d7e:	e8bd 40f8 	ldmia.w	sp!, {r3, r4, r5, r6, r7, lr}
 8003d82:	4611      	mov	r1, r2
 8003d84:	f7ff bf9c 	b.w	8003cc0 <_malloc_r>
 8003d88:	b922      	cbnz	r2, 8003d94 <_realloc_r+0x20>
 8003d8a:	f7ff ff4d 	bl	8003c28 <_free_r>
 8003d8e:	4625      	mov	r5, r4
 8003d90:	4628      	mov	r0, r5
 8003d92:	bdf8      	pop	{r3, r4, r5, r6, r7, pc}
 8003d94:	f000 f826 	bl	8003de4 <_malloc_usable_size_r>
 8003d98:	42a0      	cmp	r0, r4
 8003d9a:	d20f      	bcs.n	8003dbc <_realloc_r+0x48>
 8003d9c:	4621      	mov	r1, r4
 8003d9e:	4638      	mov	r0, r7
 8003da0:	f7ff ff8e 	bl	8003cc0 <_malloc_r>
 8003da4:	4605      	mov	r5, r0
 8003da6:	2800      	cmp	r0, #0
 8003da8:	d0f2      	beq.n	8003d90 <_realloc_r+0x1c>
 8003daa:	4631      	mov	r1, r6
 8003dac:	4622      	mov	r2, r4
 8003dae:	f7ff ff17 	bl	8003be0 <memcpy>
 8003db2:	4631      	mov	r1, r6
 8003db4:	4638      	mov	r0, r7
 8003db6:	f7ff ff37 	bl	8003c28 <_free_r>
 8003dba:	e7e9      	b.n	8003d90 <_realloc_r+0x1c>
 8003dbc:	4635      	mov	r5, r6
 8003dbe:	e7e7      	b.n	8003d90 <_realloc_r+0x1c>

08003dc0 <_sbrk_r>:
 8003dc0:	b538      	push	{r3, r4, r5, lr}
 8003dc2:	2300      	movs	r3, #0
 8003dc4:	4c05      	ldr	r4, [pc, #20]	; (8003ddc <_sbrk_r+0x1c>)
 8003dc6:	4605      	mov	r5, r0
 8003dc8:	4608      	mov	r0, r1
 8003dca:	6023      	str	r3, [r4, #0]
 8003dcc:	f7fc ffe8 	bl	8000da0 <_sbrk>
 8003dd0:	1c43      	adds	r3, r0, #1
 8003dd2:	d102      	bne.n	8003dda <_sbrk_r+0x1a>
 8003dd4:	6823      	ldr	r3, [r4, #0]
 8003dd6:	b103      	cbz	r3, 8003dda <_sbrk_r+0x1a>
 8003dd8:	602b      	str	r3, [r5, #0]
 8003dda:	bd38      	pop	{r3, r4, r5, pc}
 8003ddc:	200005a8 	.word	0x200005a8

08003de0 <__malloc_lock>:
 8003de0:	4770      	bx	lr

08003de2 <__malloc_unlock>:
 8003de2:	4770      	bx	lr

08003de4 <_malloc_usable_size_r>:
 8003de4:	f851 3c04 	ldr.w	r3, [r1, #-4]
 8003de8:	1f18      	subs	r0, r3, #4
 8003dea:	2b00      	cmp	r3, #0
 8003dec:	bfbc      	itt	lt
 8003dee:	580b      	ldrlt	r3, [r1, r0]
 8003df0:	18c0      	addlt	r0, r0, r3
 8003df2:	4770      	bx	lr

08003df4 <_init>:
 8003df4:	b5f8      	push	{r3, r4, r5, r6, r7, lr}
 8003df6:	bf00      	nop
 8003df8:	bcf8      	pop	{r3, r4, r5, r6, r7}
 8003dfa:	bc08      	pop	{r3}
 8003dfc:	469e      	mov	lr, r3
 8003dfe:	4770      	bx	lr

08003e00 <_fini>:
 8003e00:	b5f8      	push	{r3, r4, r5, r6, r7, lr}
 8003e02:	bf00      	nop
 8003e04:	bcf8      	pop	{r3, r4, r5, r6, r7}
 8003e06:	bc08      	pop	{r3}
 8003e08:	469e      	mov	lr, r3
 8003e0a:	4770      	bx	lr
